(dp0
(S'Roberto Zicari'
p1
S'In'
p2
tp3
I1
s(S'Hiroko Shoji'
p4
S'Business'
p5
tp6
I1
s(S'Liliana Favre'
p7
S'Models'
p8
tp9
I1
s(S'Walter Dealemans'
p10
S'Shallow'
p11
tp12
I1
s(S'M. N. Moreno'
p13
S'Laboratory'
p14
tp15
I1
s(S'James Feldman'
p16
S'Digital'
p17
tp18
I1
s(S'David C. Richardson'
p19
S'Structures'
p20
tp21
I1
s(S'Herman Geuvers'
p22
S'Dependent'
p23
tp24
I1
s(S'Thomas Lemke'
p25
S'Interoperable'
p26
tp27
I1
s(S'Alexander Tuzhilin'
p28
S'Applications'
p29
tp30
I1
s(S'Jean Berstel'
p31
S'Languages'
p32
tp33
I1
s(S'Zbigniew Michalewicz'
p34
S'Why'
p35
tp36
I1
s(S'A. M. Moreno'
p37
S'ADAM'
p38
tp39
I1
s(S'David Maier'
p40
S'Three'
p41
tp42
I1
s(S'F. J. Gonz\xc3\xa1lez'
p43
S'rhythm'
p44
tp45
I1
s(S'Andr\xc3\xa9 Oosterlinck'
p46
S'Heuristic'
p47
tp48
I1
s(S'Juli\xc3\xa1n Guti\xc3\xa9rrez Serrano'
p49
S'With'
p50
tp51
I1
s(S'Abdelsalam Heddaya'
p52
S'Transaction'
p53
tp54
I1
s(S'Juli\xc3\xa1n Guti\xc3\xa9rrez Serrano'
p55
S'purposes'
p56
tp57
I1
s(S'Thomas W. Reps'
p58
S'Shape'
p59
tp60
I1
s(S'Paris C. Kanellakis'
p61
S'Query'
p62
tp63
I1
s(S'Roberta Cochrane'
p64
S'SQL3'
p65
tp66
I1
s(S'Serge Abiteboul'
p67
S'Primitive'
p68
tp69
I1
s(S'F. Manfredi'
p70
S'Codasyl'
p71
tp72
I1
s(S'Clement T. Yu'
p73
S'Query'
p74
tp75
I1
s(S'Carol Soderlund'
p76
S'Rice'
p77
tp78
I1
s(S'Jos\xc3\xa9 Bravo'
p79
S'Drawing'
p80
tp81
I1
s(S'Armin B. Cremers'
p82
S'Systems'
p83
tp84
I1
s(S'Michael J. Maher'
p85
S'Scheme'
p86
tp87
I1
s(S'Dolores Cuandra'
p88
S'Constraints'
p89
tp90
I1
s(S'Paul Suetens'
p91
S'PatternClassification'
p92
tp93
I1
s(S'Clark Elliott'
p94
S'Exploratory'
p95
tp96
I1
s(S'Paris C. Kanellakis'
p97
S'Schemas'
p98
tp99
I1
s(S'Hiroko Shoji'
p100
S'HumantoHuman'
p101
tp102
I1
s(S'Liliana Favre'
p103
S'Code'
p104
tp105
I1
s(S'Bharat G. Mitbander'
p106
S'Data'
p107
tp108
I1
s(S'Donna Harman'
p109
S'Relevance'
p110
tp111
I1
s(S'Juan de Lara'
p112
S'Distance'
p113
tp114
I1
s(S'A. M. Moreno'
p115
S'Engineering'
p116
tp117
I1
s(S'Valeria Mihalache'
p118
S'DNA'
p119
tp120
I1
s(S'Baltasar Fern\xc3\xa1ndez-Manj\xc3\xb3n'
p121
S'Domain'
p122
tp123
I1
s(S'Ulrich Schiel'
p124
S'Integrity'
p125
tp126
I1
s(S'Dolores Cuandra'
p127
S'Preserving'
p128
tp129
I1
s(S'Juan de Lara'
p130
S'Automatically'
p131
tp132
I1
s(S'Abdelsalam Heddaya'
p133
S'Techniques'
p134
tp135
I1
s(S'Didier Plateau'
p136
S'Programming'
p137
tp138
I1
s(S'Carlo Zaniolo'
p139
S'Mining'
p140
tp141
I1
s(S'Eric N. Hanson'
p142
S'Ariel'
p143
tp144
I1
s(S'Henk Barendregt'
p145
S'Dependent'
p146
tp147
I1
s(S'Steven Blundy'
p148
S'Mapping'
p149
tp150
I1
s(S'John Lim'
p151
S'Language'
p152
tp153
I1
s(S'David Maier'
p154
S'CAD'
p155
tp156
I1
s(S'Paris C. Kanellakis'
p157
S'Primitive'
p158
tp159
I1
s(S'Kshitij Shah'
p160
S'Building'
p161
tp162
I1
s(S'Jane S. Richardson'
p163
S'HighGrade'
p164
tp165
I1
s(S'Krishna G. Kulkarni'
p166
S'Active'
p167
tp168
I1
s(S'Jean-Claude Mamou'
p169
S'Building'
p170
tp171
I1
s(S'Giacinto Losquadro'
p172
S'ACCORD'
p173
tp174
I1
s(S'A. Gonz\xc3\xa1lez'
p175
S'educational'
p176
tp177
I1
s(S'Ravindra B. Keskar'
p178
S'Safe'
p179
tp180
I1
s(S'Reinhard Wilhelm'
p181
S'Applications'
p182
tp183
I1
s(S'Elizabeth A. Kendall'
p184
S'Patterns'
p185
tp186
I1
s(S'James Feldman'
p187
S'Logic'
p188
tp189
I1
s(S'Andr\xc3\xa9 Oosterlinck'
p190
S'Approaches'
p191
tp192
I1
s(S'M. Lacruz'
p193
S'Environments'
p194
tp195
I1
s(S'Jos\xc3\xa9 \xc3\x81ngel Vadillo Zorita'
p196
S'adaptive'
p197
tp198
I1
s(S'Eyal Yardeni'
p199
S'Programs'
p200
tp201
I1
s(S'M. R. Rao'
p202
S'Combinatorial'
p203
tp204
I1
s(S'Juli\xc3\xa1n Guti\xc3\xa9rrez Serrano'
p205
S'hyperspace'
p206
tp207
I1
s(S'Hartmut Ehrig'
p208
S'TAPSOFT'
p209
tp210
I1
s(S'Ravi Mukkamala'
p211
S'Reduction'
p212
tp213
I1
s(S'J. V. Benlloch'
p214
S'Modules'
p215
tp216
I1
s(S'Alexander Tuzhilin'
p217
S'Databases'
p218
tp219
I1
s(S'Jos\xc3\xa9 \xc3\x81ngel Vadillo Zorita'
p220
S'With'
p221
tp222
I1
s(S'Alexiei Dingli'
p223
S'Annotation'
p224
tp225
I1
s(S'William B. Frakes'
p226
S'Stemming'
p227
tp228
I1
s(S'Jos\xc3\xa9 Bravo'
p229
S'Actions'
p230
tp231
I1
s(S'Ravindra B. Keskar'
p232
S'Mobile'
p233
tp234
I1
s(S"Patrick E. O'Neil"
p235
S'The'
p236
tp237
I1
s(S'H. V. Jagadish'
p238
S'Similarity'
p239
tp240
I1
s(S'Jos\xc3\xa9 \xc3\x81ngel Vadillo Zorita'
p241
S'Pedagogical'
p242
tp243
I1
s(S'Roger B. Dannenberg'
p244
S'Systems'
p245
tp246
I1
s(S'Ravi Murthy'
p247
S'Oracle'
p248
tp249
I1
s(S'Witold Staniszkis'
p250
S'Physical'
p251
tp252
I1
s(S'Marc H. Scholl'
p253
S'System'
p254
tp255
I1
s(S'Peretz Shoval'
p256
S'Integrity'
p257
tp258
I1
s(S'Gianluigi Zavattaro'
p259
S'Models'
p260
tp261
I1
s(S'Julian Davies'
p262
S'Implementation'
p263
tp264
I1
s(S'Sandeepan Banerjee'
p265
S'The'
p266
tp267
I1
s(S'Richard M. Karp'
p268
S'Genomics'
p269
tp270
I1
s(S'Terry A. Halpin'
p271
S'Comparison'
p272
tp273
I1
s(S'Robert E. Noonan'
p274
S'Run'
p275
tp276
I1
s(S'P. A. Massey'
p277
S'Benchmarking'
p278
tp279
I1
s(S'Jeff Rickel'
p280
S'An'
p281
tp282
I1
s(S'Jean-Louis Lassez'
p283
S'Logic'
p284
tp285
I1
s(S'Baltasar Fern\xc3\xa1ndez-Manj\xc3\xb3n'
p286
S'Design'
p287
tp288
I1
s(S'Francisco Jos\xc3\xa9 Garc\xc3\xada'
p289
S'tools'
p290
tp291
I1
s(S'Liliana Favre'
p292
S'Systematic'
p293
tp294
I1
s(S'Sushil Jajodia'
p295
S'Concurrency'
p296
tp297
I1
s(S'Cyril U. Orji'
p298
S'DBMS'
p299
tp300
I1
s(S'F. J. Gonz\xc3\xa1lez'
p301
S'Ortofnicos'
p302
tp303
I1
s(S'Ricardo L\xc3\xb3pez Pietro'
p304
S'construction'
p305
tp306
I1
s(S'Jack Milton'
p307
S'Rules'
p308
tp309
I1
s(S'Miguel A. Redondo'
p310
S'Synchronous'
p311
tp312
I1
s(S'Padhraic Smyth'
p313
S'Theory'
p314
tp315
I1
s(S'Paris C. Kanellakis'
p316
S'Database'
p317
tp318
I1
s(S'Jim A. Crammond'
p319
S'Prolog'
p320
tp321
I1
s(S'Sushil Jajodia'
p322
S'Transaction'
p323
tp324
I1
s(S'Silvia Clerici'
p325
S'Code'
p326
tp327
I1
s(S'Thom W. Fr\xc3\xbchwirth'
p328
S'Polymorphically'
p329
tp330
I1
s(S'Valeria De Antonellis'
p331
S'DATAID'
p332
tp333
I1
s(S'Fred Engler'
p334
S'FPC'
p335
tp336
I1
s(S'Sylvia L. Osborn'
p337
S'Database'
p338
tp339
I1
s(S'M. Howard Williams'
p340
S'Optimization'
p341
tp342
I1
s(S'Sanjay Manchanda'
p343
S'Language'
p344
tp345
I1
s(S'Manuel Alfonseca'
p346
S'Integration'
p347
tp348
I1
s(S'M. Howard Williams'
p349
S'Benchmarking'
p350
tp351
I1
s(S'G. Gonz\xc3\xa1lez'
p352
S'Engineering'
p353
tp354
I1
s(S'Padhraic Smyth'
p355
S'Rule'
p356
tp357
I1
s(S'Walter Dealemans'
p358
S'FeatureRich'
p359
tp360
I1
s(S'Tobin J. Lehman'
p361
S'Performance'
p362
tp363
I1
s(S'Michael J. Franklin'
p364
S'Recovery'
p365
tp366
I1
s(S'Padhraic Smyth'
p367
S'Using'
p368
tp369
I1
s(S'M. N. Moreno'
p370
S'upper'
p371
tp372
I1
s(S'Paolo Conforto'
p373
S'ACCORD'
p374
tp375
I1
s(S'Roberta Cochrane'
p376
S'Database'
p377
tp378
I1
s(S'Mechthild Rohen'
p379
S'Interoperable'
p380
tp381
I1
s(S'G. Gonz\xc3\xa1lez'
p382
S'Using'
p383
tp384
I1
s(S'M. J. Fern\xc3\xa1ndez'
p385
S'Scenarios'
p386
tp387
I1
s(S'William L. Bynum'
p388
S'Environments'
p389
tp390
I1
s(S'Nora Koch'
p391
S'Web'
p392
tp393
I1
s(S'Zbigniew Michalewicz'
p394
S'Algorithms'
p395
tp396
I1
s(S'Claude Delobel'
p397
S'Environment'
p398
tp399
I1
s(S'Paloma Martinez'
p400
S'Preserving'
p401
tp402
I1
s(S'A. Mecchia'
p403
S'Data'
p404
tp405
I1
s(S'Rudolf Kruse'
p406
S'Belief'
p407
tp408
I2
s(S'Heiko Thimm'
p409
S'Playout'
p410
tp411
I1
s(S'Robin Milner'
p412
S'Concurrent'
p413
tp414
I1
s(S'Fernando V\xc3\xa9lez'
p415
S'Alternative'
p416
tp417
I1
s(S'Henk Barendregt'
p418
S'Systems'
p419
tp420
I1
s(S'Subramanian Rajagopalan'
p421
S'Signal'
p422
tp423
I1
s(S'Jean-Claude Mamou'
p424
S'Looks'
p425
tp426
I1
s(S'Vance E. Waddle'
p427
S'Database'
p428
tp429
I1
s(S'Jos\xc3\xa9 \xc3\x81ngel Vadillo Zorita'
p430
S'user'
p431
tp432
I1
s(S'Arto Salomaa'
p433
S'Truth'
p434
tp435
I1
s(S'Richard T. Snodgrass'
p436
S'Types'
p437
tp438
I1
s(S'Helmut Thoma'
p439
S'Wissen'
p440
tp441
I1
s(S'Amit P. Sheth'
p442
S'MultiMedia'
p443
tp444
I1
s(S'Peretz Shoval'
p445
S'Model'
p446
tp447
I1
s(S'Cyril U. Orji'
p448
S'Hype'
p449
tp450
I1
s(S'James Hatfield'
p451
S'Mapping'
p452
tp453
I1
s(S'Crescencio Bravo'
p454
S'Environments'
p455
tp456
I1
s(S'Carol Soderlund'
p457
S'Mapping'
p458
tp459
I1
s(S'Jos\xc3\xa9 \xc3\x81ngel Vadillo Zorita'
p460
S'access'
p461
tp462
I1
s(S'B. Curto'
p463
S'upper'
p464
tp465
I1
s(S'Feliks Kluzniak'
p466
S'Interpreter'
p467
tp468
I1
s(S'Wolfgang Klas'
p469
S'Systems'
p470
tp471
I1
s(S'Juan de Lara'
p472
S'Simulation'
p473
tp474
I2
s(S'Helen Pull'
p475
S'The'
p476
tp477
I1
s(S'Qi Fan Chen'
p478
S'Hashing'
p479
tp480
I1
s(S'Amit P. Sheth'
p481
S'Quilt'
p482
tp483
I1
s(S'Paul Tarau'
p484
S'Infrastructure'
p485
tp486
I1
s(S'Jos\xc3\xa9 \xc3\x81ngel Vadillo Zorita'
p487
S'element'
p488
tp489
I1
s(S'Sylvia L. Osborn'
p490
S'Issues'
p491
tp492
I1
s(S'M. N. Moreno'
p493
S'CASE'
p494
tp495
I2
s(S'Sharad Malik'
p496
S'Processors'
p497
tp498
I1
s(S'Thomas Lemke'
p499
S'Program'
p500
tp501
I1
s(S'Dean Rosenzweig'
p502
S'Compiler'
p503
tp504
I1
s(S'Fran\xc3\xa7ois Bancilhon'
p505
S'Query'
p506
tp507
I1
s(S'Volker Weispfenning'
p508
S'Numerical'
p509
tp510
I1
s(S'Vineeth Kumar Paleri'
p511
S'Formal'
p512
tp513
I1
s(S'Kim B. Bruce'
p514
S'Imperative'
p515
tp516
I1
s(S'Hiroko Shoji'
p517
S'Discovery'
p518
tp519
I1
s(S'Jeff Rickel'
p520
S'Pedagogical'
p521
tp522
I1
s(S'P. Bertaina'
p523
S'Design'
p524
tp525
I1
s(S'Dolores Cuandra'
p526
S'Cardinality'
p527
tp528
I1
s(S'Mira Balaban'
p529
S'Cardinality'
p530
tp531
I1
s(S'Jerzy Tiuryn'
p532
S'Programs'
p533
tp534
I1
s(S'Ahmed K. Elmagarmid'
p535
S'Optimization'
p536
tp537
I1
s(S'David Maier'
p538
S'Architectures'
p539
tp540
I1
s(S'Barron C. Housel'
p541
S'An'
p542
tp543
I1
s(S'Lee A. Hollaar'
p544
S'Databases'
p545
tp546
I1
s(S'Silvia Clerici'
p547
S'UML'
p548
tp549
I1
s(S'Vance E. Waddle'
p550
S'Interactive'
p551
tp552
I1
s(S'David Maier'
p553
S'Enough'
p554
tp555
I1
s(S'David Maier'
p556
S'Making'
p557
tp558
I1
s(S'Mario Piattini'
p559
S'Quality'
p560
tp561
I1
s(S'Philippe Futtersack'
p562
S'Three'
p563
tp564
I1
s(S'Tobin J. Lehman'
p565
S'Manager'
p566
tp567
I1
s(S'Roberto Zicari'
p568
S'Schema'
p569
tp570
I1
s(S'Gianluigi Zavattaro'
p571
S'Coordination'
p572
tp573
I1
s(S'Miguel A. Redondo'
p574
S'Collaborative'
p575
tp576
I1
s(S'Teodor C. Przymusinski'
p577
S'Programs'
p578
tp579
I1
s(S'Wolfgang Klas'
p580
S'Database'
p581
tp582
I1
s(S'Alexander Tuzhilin'
p583
S'Knowledgebased'
p584
tp585
I1
s(S'Rudolf Kruse'
p586
S'Transferable'
p587
tp588
I1
s(S'Lenwood S. Heath'
p589
S'Algorithms'
p590
tp591
I1
s(S'Tobin J. Lehman'
p592
S'Database'
p593
tp594
I1
s(S'Eyal Yardeni'
p595
S'Polymorphically'
p596
tp597
I1
s(S'Alexandru Mateescu'
p598
S'ManyValued'
p599
tp600
I1
s(S'Q. Wu'
p601
S'Integration'
p602
tp603
I1
s(S'Serge Abiteboul'
p604
S'Identity'
p605
tp606
I1
s(S'Baltasar Fern\xc3\xa1ndez-Manj\xc3\xb3n'
p607
S'Educational'
p608
tp609
I1
s(S'R. Conejo'
p610
S'articulated'
p611
tp612
I1
s(S'Ricardo L\xc3\xb3pez Pietro'
p613
S'element'
p614
tp615
I1
s(S'Jakub Zavrel'
p616
S'Shallow'
p617
tp618
I1
s(S'Yukio Ohsawa'
p619
S'Scenic'
p620
tp621
I1
s(S'Fred B. Schneider'
p622
S'Concepts'
p623
tp624
I1
s(S'Carlos Nieto'
p625
S'Relational'
p626
tp627
I1
s(S'Vijay Chandru'
p628
S'Optimization'
p629
tp630
I1
s(S'Helmut Thoma'
p631
S'Lernen'
p632
tp633
I1
s(S'Vance E. Waddle'
p634
S'Design'
p635
tp636
I1
s(S'Manuel Alfonseca'
p637
S'Simulation'
p638
tp639
I2
s(S'David Harel'
p640
S'Recursive'
p641
tp642
I1
s(S'Paolo Ciancarini'
p643
S'Guided'
p644
tp645
I1
s(S'Jane S. Richardson'
p646
S'Mining'
p647
tp648
I1
s(S'Paolo Ciancarini'
p649
S'Coordination'
p650
tp651
I1
s(S'Vibby Gottemukkala'
p652
S'MemoryResident'
p653
tp654
I1
s(S'Jos\xc3\xa9 Bravo'
p655
S'Design'
p656
tp657
I1
s(S'Steven A. Demurjian'
p658
S'Traditional'
p659
tp660
I1
s(S'Roberto Zicari'
p661
S'Updates'
p662
tp663
I1
s(S'R. Conejo'
p664
S'intensity'
p665
tp666
I1
s(S'Jos\xc3\xa9 \xc3\x81ngel Vadillo Zorita'
p667
S'knowledge'
p668
tp669
I1
s(S'Domenico Sacc\xc3\xa0'
p670
S'Design'
p671
tp672
I1
s(S'Vincenzo Marziale'
p673
S'Solutions'
p674
tp675
I1
s(S'Jim A. Crammond'
p676
S'Database'
p677
tp678
I1
s(S'Barron C. Housel'
p679
S'Interactive'
p680
tp681
I1
s(S'S. Todd'
p682
S'Prolog'
p683
tp684
I1
s(S'Roger B. Dannenberg'
p685
S'Programming'
p686
tp687
I1
s(S'Herman Geuvers'
p688
S'Using'
p689
tp690
I1
s(S'M. J. Fern\xc3\xa1ndez'
p691
S'Training'
p692
tp693
I1
s(S'Manuel Velasco'
p694
S'Constraints'
p695
tp696
I1
s(S'Serge Abiteboul'
p697
S'Language'
p698
tp699
I1
s(S'Peretz Shoval'
p700
S'Cardinality'
p701
tp702
I1
s(S'Barron C. Housel'
p703
S'System'
p704
tp705
I1
s(S'Hartmut Ehrig'
p706
S'Driving'
p707
tp708
I1
s(S'Dean Rosenzweig'
p709
S'Correctness'
p710
tp711
I1
s(S'Carlos Nieto'
p712
S'Schemata'
p713
tp714
I1
s(S'Nadia Busi'
p715
S'Tour'
p716
tp717
I1
s(S'Miguel A. Redondo'
p718
S'Environments'
p719
tp720
I1
s(S'Antonio Navarro'
p721
S'Using'
p722
tp723
I1
s(S'Gail E. Kaiser'
p724
S'Transactions'
p725
tp726
I1
s(S'J\xc3\xbcrgen Sauer'
p727
S'Scheduling'
p728
tp729
I1
s(S'Eyal Yardeni'
p730
S'Logic'
p731
tp732
I1
s(S'Domenico Sacc\xc3\xa0'
p733
S'DBMS'
p734
tp735
I1
s(S'Andr\xc3\xa9 Oosterlinck'
p736
S'System'
p737
tp738
I1
s(S'Rodney M. Goodman'
p739
S'Induction'
p740
tp741
I1
s(S'S. Bing Yao'
p742
S'System'
p743
tp744
I1
s(S'Jos\xc3\xa9 \xc3\x81ngel Vadillo Zorita'
p745
S'hypermedia'
p746
tp747
I1
s(S'Giacinto Losquadro'
p748
S'Working'
p749
tp750
I1
s(S'Arto Salomaa'
p751
S'Conjecture'
p752
tp753
I1
s(S'Manuel Velasco'
p754
S'Relationship'
p755
tp756
I1
s(S'Tom\xc3\xa1s A. P\xc3\xa9rez'
p757
S'Pedagogical'
p758
tp759
I1
s(S'David Maier'
p760
S'ObjectOriented'
p761
tp762
I1
s(S'Yasuyuki Sumi'
p763
S'Enhancing'
p764
tp765
I1
s(S'Baltasar Fern\xc3\xa1ndez-Manj\xc3\xb3n'
p766
S'Analysis'
p767
tp768
I1
s(S'Baltasar Fern\xc3\xa1ndez-Manj\xc3\xb3n'
p769
S'Applications'
p770
tp771
I1
s(S'Gail E. Kaiser'
p772
S'Environments'
p773
tp774
I1
s(S'Antonio Di Leva'
p775
S'Logical'
p776
tp777
I1
s(S'Paris C. Kanellakis'
p778
S'Language'
p779
tp780
I1
s(S'Ravi Murthy'
p781
S'The'
p782
tp783
I1
s(S'Oscar D\xc3\xadaz'
p784
S'Support'
p785
tp786
I1
s(S'Sanjay Manchanda'
p787
S'Database'
p788
tp789
I1
s(S'Mechthild Rohen'
p790
S'Program'
p791
tp792
I1
s(S'Alan Watt'
p793
S'Techniques'
p794
tp795
I1
s(S'Roberta Cochrane'
p796
S'Features'
p797
tp798
I1
s(S'Rudolf Kruse'
p799
S'Model'
p800
tp801
I1
s(S'Michael J. Jipping'
p802
S'Imperative'
p803
tp804
I1
s(S'Henk Barendregt'
p805
S'Using'
p806
tp807
I1
s(S'Jeff Rickel'
p808
S'Agents'
p809
tp810
I1
s(S'Serge Abiteboul'
p811
S'Method'
p812
tp813
I1
s(S'Richard T. Snodgrass'
p814
S'Temporal'
p815
tp816
I1
s(S'Alan R. Hevner'
p817
S'Design'
p818
tp819
I1
s(S'Crescencio Bravo'
p820
S'Collaborative'
p821
tp822
I1
s(S'Hock Chuan Chan'
p823
S'Natural'
p824
tp825
I1
s(S'Donna Harman'
p826
S'Other'
p827
tp828
I1
s(S'Subramanian Rajagopalan'
p829
S'Word'
p830
tp831
I1
s(S'Domenico Sacc\xc3\xa0'
p832
S'Data'
p833
tp834
I1
s(S'Peretz Shoval'
p835
S'Enforcing'
p836
tp837
I1
s(S'Erik Sandewall'
p838
S'Ramification'
p839
tp840
I1
s(S'Juan C. Burguillo-Rial'
p841
S'Modules'
p842
tp843
I1
s(S'Emmanuel Waller'
p844
S'Schemas'
p845
tp846
I1
s(S'Jean-Claude Mamou'
p847
S'Interfaces'
p848
tp849
I1
s(S'Peter McBurney'
p850
S'Argumentation'
p851
tp852
I1
s(S'Arto Salomaa'
p853
S'WatsonCrick'
p854
tp855
I1
s(S'Armin B. Cremers'
p856
S'Modules'
p857
tp858
I1
s(S'Gerhard Widmer'
p859
S'Research'
p860
tp861
I1
s(S'Craig Stanfill'
p862
S'Parallel'
p863
tp864
I1
s(S'James C. Lester'
p865
S'Exploratory'
p866
tp867
I1
s(S'M. J. Fern\xc3\xa1ndez'
p868
S'Collaborative'
p869
tp870
I1
s(S'Ricardo L\xc3\xb3pez Pietro'
p871
S'An'
p872
tp873
I1
s(S'F. J. Gonz\xc3\xa1lez'
p874
S'parameters'
p875
tp876
I1
s(S'David Maier'
p877
S'Alternative'
p878
tp879
I1
s(S'Clark Elliott'
p880
S'Agents'
p881
tp882
I1
s(S'Ahmed K. Elmagarmid'
p883
S'Techniques'
p884
tp885
I1
s(S'Michael I. Jordan'
p886
S'Networks'
p887
tp888
I1
s(S'Clark Elliott'
p889
S'Synthesis'
p890
tp891
I1
s(S'Jim Diederich'
p892
S'Messages'
p893
tp894
I1
s(S'Manuel Ortega'
p895
S'Actions'
p896
tp897
I1
s(S'Jos\xc3\xa9 Bravo'
p898
S'Synchronous'
p899
tp900
I1
s(S'Manuel Ortega'
p901
S'Collaborative'
p902
tp903
I1
s(S'Hartmut Ehrig'
p904
S'Theory'
p905
tp906
I1
s(S'J. Baker'
p907
S'Mining'
p908
tp909
I1
s(S'Clement T. Yu'
p910
S'Distributed'
p911
tp912
I1
s(S'Lee A. Hollaar'
p913
S'Retrieval'
p914
tp915
I1
s(S'Wei-Min Shen'
p916
S'Data'
p917
tp918
I1
s(S'Claude Delobel'
p919
S'Programming'
p920
tp921
I1
s(S'Paloma Martinez'
p922
S'Cardinality'
p923
tp924
I1
s(S'Lee A. Hollaar'
p925
S'Text'
p926
tp927
I1
s(S'Martin Gaedke'
p928
S'Implementierungstechnologien'
p929
tp930
I1
s(S'A. J. Field'
p931
S'Unification'
p932
tp933
I1
s(S'Piero Fraternali'
p934
S'Rule'
p935
tp936
I1
s(S'Vibby Gottemukkala'
p937
S'The'
p938
tp939
I1
s(S'Gregory R. Andrews'
p940
S'Concurrent'
p941
tp942
I1
s(S'Didier L\xc3\xa9v\xc3\xaaque'
p943
S'Interfaces'
p944
tp945
I1
s(S'Philippe Futtersack'
p946
S'Alternative'
p947
tp948
I1
s(S'Antonio Albano'
p949
S'approach'
p950
tp951
I1
s(S'Alfredo Fern\xc3\xa1ndez-Valmayor'
p952
S'Applications'
p953
tp954
I1
s(S'Juli\xc3\xa1n Guti\xc3\xa9rrez Serrano'
p955
S'aid'
p956
tp957
I1
s(S'Roger King'
p958
S'Data'
p959
tp960
I1
s(S'Nora Koch'
p961
S'UML'
p962
tp963
I1
s(S'Marc H. Scholl'
p964
S'Database'
p965
tp966
I2
s(S'Egon B\xc3\xb6rger'
p967
S'Correctness'
p968
tp969
I1
s(S'Michael J. Franklin'
p970
S'Concurrency'
p971
tp972
I1
s(S'Kim Marriott'
p973
S'Unification'
p974
tp975
I1
s(S'Dennis McLeod'
p976
S'Semantic'
p977
tp978
I1
s(S'Sophie Cluet'
p979
S'Language'
p980
tp981
I1
s(S'David Scott Warren'
p982
S'Logicbased'
p983
tp984
I1
s(S'Michael D. Soo'
p985
S'Types'
p986
tp987
I1
s(S'Ravi Mukkamala'
p988
S'Conflicts'
p989
tp990
I1
s(S'Luis E. Anido-Rif\xc3\xb3n'
p991
S'Creating'
p992
tp993
I1
s(S'A. Gonz\xc3\xa1lez'
p994
S'construction'
p995
tp996
I1
s(S'J. Baker'
p997
S'Interactive'
p998
tp999
I1
s(S'M. Lacruz'
p1000
S'Synchronous'
p1001
tp1002
I1
s(S'Fabio Ciravegna'
p1003
S'Adaptive'
p1004
tp1005
I1
s(S'Vineeth Kumar Paleri'
p1006
S'Optimizers'
p1007
tp1008
I1
s(S'Elena Castro'
p1009
S'Schemata'
p1010
tp1011
I1
s(S'Jos\xc3\xa9 Luis Sierra'
p1012
S'Using'
p1013
tp1014
I1
s(S'Ricardo L\xc3\xb3pez Pietro'
p1015
S'purposes'
p1016
tp1017
I1
s(S'B. Curto'
p1018
S'CASE'
p1019
tp1020
I2
s(S'Egon B\xc3\xb6rger'
p1021
S'Compiler'
p1022
tp1023
I1
s(S'Fabio Ciravegna'
p1024
S'HumanCentred'
p1025
tp1026
I1
s(S'Vincenzo Marziale'
p1027
S'ACCORD'
p1028
tp1029
I1
s(S'Clement T. Yu'
p1030
S'Database'
p1031
tp1032
I1
s(S'Luc Boasson'
p1033
S'Languages'
p1034
tp1035
I1
s(S'Marc van Leeuwen'
p1036
S'Language'
p1037
tp1038
I1
s(S'Ricardo L\xc3\xb3pez Pietro'
p1039
S'systems'
p1040
tp1041
I1
s(S'Richard M. Karp'
p1042
S'Challenges'
p1043
tp1044
I1
s(S'Jos\xc3\xa9 \xc3\x81ngel Vadillo Zorita'
p1045
S'construction'
p1046
tp1047
I1
s(S'Bernd Mahr'
p1048
S'Forces'
p1049
tp1050
I1
s(S'Baltasar Fern\xc3\xa1ndez-Manj\xc3\xb3n'
p1051
S'Development'
p1052
tp1053
I1
s(S'Piero Fraternali'
p1054
S'Chimera'
p1055
tp1056
I1
s(S'Valeria Mihalache'
p1057
S'WatsonCrick'
p1058
tp1059
I1
s(S'Krishna G. Kulkarni'
p1060
S'Database'
p1061
tp1062
I1
s(S'S. Todd'
p1063
S'Database'
p1064
tp1065
I1
s(S'Kshitij Shah'
p1066
S'MultiMedia'
p1067
tp1068
I1
s(S'David Maier'
p1069
S'DBMS'
p1070
tp1071
I1
s(S'Alan Watt'
p1072
S'Rendering'
p1073
tp1074
I1
s(S'Roberto Zicari'
p1075
S'ObjectOriented'
p1076
tp1077
I1
s(S'Andrea Omicini'
p1078
S'Introduction'
p1079
tp1080
I1
s(S'Carlos Nieto'
p1081
S'Constraints'
p1082
tp1083
I1
s(S'Elizabeth A. Kendall'
p1084
S'Coordination'
p1085
tp1086
I1
s(S'Jerzy Tiuryn'
p1087
S'Logics'
p1088
tp1089
I1
s(S'Barron C. Housel'
p1090
S'Design'
p1091
tp1092
I1
s(S'A. Gonz\xc3\xa1lez'
p1093
S'hypermedia'
p1094
tp1095
I1
s(S'Rudolf Kruse'
p1096
S'The'
p1097
tp1098
I1
s(S'Michael D. Soo'
p1099
S'Temporal'
p1100
tp1101
I1
s(S'A. M. Moreno'
p1102
S'Laboratory'
p1103
tp1104
I1
s(S'Walter Dealemans'
p1105
S'MemoryBased'
p1106
tp1107
I1
s(S'Pierangela Samarati'
p1108
S'Detection'
p1109
tp1110
I1
s(S'Thomas Lemke'
p1111
S'Information'
p1112
tp1113
I1
s(S'Jos\xc3\xa9 \xc3\x81ngel Vadillo Zorita'
p1114
S'Limiting'
p1115
tp1116
I1
s(S'Jeff Rickel'
p1117
S'Synthesis'
p1118
tp1119
I1
s(S'Sharad Malik'
p1120
S'Compiler'
p1121
tp1122
I1
s(S'Jos\xc3\xa9 Luis Sierra'
p1123
S'Educational'
p1124
tp1125
I1
s(S'Manuel Velasco'
p1126
S'Preserving'
p1127
tp1128
I1
s(S'Heiko Thimm'
p1129
S'Systems'
p1130
tp1131
I1
s(S'Richard M. Karp'
p1132
S'Research'
p1133
tp1134
I1
s(S'David Scott Warren'
p1135
S'Language'
p1136
tp1137
I1
s(S'Clark Elliott'
p1138
S'Lifelike'
p1139
tp1140
I1
s(S'A. Gonz\xc3\xa1lez'
p1141
S'Strategies'
p1142
tp1143
I1
s(S'KayLiang Ong'
p1144
S'Data'
p1145
tp1146
I1
s(S'Gianluigi Zavattaro'
p1147
S'Tour'
p1148
tp1149
I1
s(S'Helen Pull'
p1150
S'Unification'
p1151
tp1152
I1
s(S'Alexiei Dingli'
p1153
S'Using'
p1154
tp1155
I1
s(S'Carlos Nieto'
p1156
S'Preserving'
p1157
tp1158
I1
s(S'Jan L. G. Dietz'
p1159
S'Organization'
p1160
tp1161
I1
s(S'S. Torres'
p1162
S'sound'
p1163
tp1164
I1
s(S'David Harel'
p1165
S'Structures'
p1166
tp1167
I1
s(S'Hartmut Ehrig'
p1168
S'Practice'
p1169
tp1170
I1
s(S'H. V. Jagadish'
p1171
S'Retrieval'
p1172
tp1173
I1
s(S'Teodor C. Przymusinski'
p1174
S'Databases'
p1175
tp1176
I1
s(S'Vincenzo Marziale'
p1177
S'Working'
p1178
tp1179
I1
s(S'Michael J. Franklin'
p1180
S'ClientServer'
p1181
tp1182
I1
s(S'Gianluigi Zavattaro'
p1183
S'Guided'
p1184
tp1185
I1
s(S'Abdelsalam Helal'
p1186
S'Optimization'
p1187
tp1188
I1
s(S'Dietmar Seipel'
p1189
S'Database'
p1190
tp1191
I1
s(S'Claude Delobel'
p1192
S'O2'
p1193
tp1194
I1
s(S'Fabio Ciravegna'
p1195
S'Information'
p1196
tp1197
I1
s(S'Shaul Dar'
p1198
S'Closure'
p1199
tp1200
I1
s(S'Jim Diederich'
p1201
S'Rules'
p1202
tp1203
I1
s(S'Jeff Rickel'
p1204
S'Exploratory'
p1205
tp1206
I1
s(S'P. A. Massey'
p1207
S'Prolog'
p1208
tp1209
I1
s(S'Jakub Zavrel'
p1210
S'FeatureRich'
p1211
tp1212
I1
s(S'A. Gonz\xc3\xa1lez'
p1213
S'Limiting'
p1214
tp1215
I1
s(S'Peretz Shoval'
p1216
S'Constraints'
p1217
tp1218
I1
s(S'Shaul Dar'
p1219
S'Databases'
p1220
tp1221
I1
s(S'Jack Milton'
p1222
S'Objects'
p1223
tp1224
I1
s(S'Zbigniew Michalewicz'
p1225
S'Evolutionary'
p1226
tp1227
I1
s(S'Jos\xc3\xa9 \xc3\x81ngel Vadillo Zorita'
p1228
S'Guiding'
p1229
tp1230
I1
s(S'Craig Stanfill'
p1231
S'Information'
p1232
tp1233
I1
s(S'Dwight Deugo'
p1234
S'Coordination'
p1235
tp1236
I1
s(S'Jean-Louis Lassez'
p1237
S'Language'
p1238
tp1239
I1
s(S'Gerhard Widmer'
p1240
S'Learning'
p1241
tp1242
I1
s(S'Jos\xc3\xa9 Bravo'
p1243
S'Collaborative'
p1244
tp1245
I1
s(S'Tom\xc3\xa1s A. P\xc3\xa9rez'
p1246
S'aid'
p1247
tp1248
I1
s(S'Herman Geuvers'
p1249
S'Type'
p1250
tp1251
I1
s(S'Sophie Cluet'
p1252
S'O2'
p1253
tp1254
I1
s(S'Nora Koch'
p1255
S'Design'
p1256
tp1257
I1
s(S'Juan C. Burguillo-Rial'
p1258
S'Interconnecting'
p1259
tp1260
I1
s(S'Gail E. Kaiser'
p1261
S'Multiuser'
p1262
tp1263
I1
s(S'John Lim'
p1264
S'Interfaces'
p1265
tp1266
I1
s(S'Arto Salomaa'
p1267
S'Systems'
p1268
tp1269
I1
s(S'Peter van Emde Boas'
p1270
S'Models'
p1271
tp1272
I1
s(S'Alan R. Hevner'
p1273
S'Database'
p1274
tp1275
I1
s(S'Juli\xc3\xa1n Guti\xc3\xa9rrez Serrano'
p1276
S'Limiting'
p1277
tp1278
I1
s(S'Borys Omelayenko'
p1279
S'Mapping'
p1280
tp1281
I1
s(S'A. M. Moreno'
p1282
S'Using'
p1283
tp1284
I1
s(S'Juan de Lara'
p1285
S'Using'
p1286
tp1287
I1
s(S'Dolores Cuandra'
p1288
S'Relationship'
p1289
tp1290
I1
s(S'Teodor C. Przymusinski'
p1291
S'Deductive'
p1292
tp1293
I1
s(S'Oliver Jung'
p1294
S'Implementierungstechnologien'
p1295
tp1296
I1
s(S'James C. Lester'
p1297
S'Computing'
p1298
tp1299
I1
s(S'Omri Serlin'
p1300
S'History'
p1301
tp1302
I1
s(S'Elena Castro'
p1303
S'Relationship'
p1304
tp1305
I1
s(S'Vishu Krishnamurthy'
p1306
S'All'
p1307
tp1308
I1
s(S'Divesh Srivastava'
p1309
S'Deductive'
p1310
tp1311
I1
s(S'Fred Engler'
p1312
S'Sequence'
p1313
tp1314
I1
s(S'Neelam Gupta'
p1315
S'Data'
p1316
tp1317
I1
s(S'Didier L\xc3\xa9v\xc3\xaaque'
p1318
S'Looks'
p1319
tp1320
I1
s(S'Heiko Thimm'
p1321
S'Management'
p1322
tp1323
I1
s(S'G. Gonz\xc3\xa1lez'
p1324
S'Laboratory'
p1325
tp1326
I1
s(S'S. Todd'
p1327
S'Relational'
p1328
tp1329
I1
s(S'Giacinto Losquadro'
p1330
S'Flexible'
p1331
tp1332
I1
s(S'Robert E. Noonan'
p1333
S'Management'
p1334
tp1335
I1
s(S'Reinhard Wilhelm'
p1336
S'Shape'
p1337
tp1338
I1
s(S'David Harel'
p1339
S'theory'
p1340
tp1341
I1
s(S'John Darlington'
p1342
S'Languages'
p1343
tp1344
I1
s(S'S. Torres'
p1345
S'suprasegmental'
p1346
tp1347
I1
s(S'Sushil Jajodia'
p1348
S'Database'
p1349
tp1350
I1
s(S'Yorick Wilks'
p1351
S'Information'
p1352
tp1353
I1
s(S'Teodor C. Przymusinski'
p1354
S'On'
p1355
tp1356
I1
s(S'Tom\xc3\xa1s A. P\xc3\xa9rez'
p1357
S'With'
p1358
tp1359
I1
s(S'Wolfgang Klas'
p1360
S'Multimedia'
p1361
tp1362
I1
s(S'G. Gonz\xc3\xa1lez'
p1363
S'tools'
p1364
tp1365
I1
s(S'Philippe Smets'
p1366
S'Representation'
p1367
tp1368
I1
s(S'Yorick Wilks'
p1369
S'Effective'
p1370
tp1371
I1
s(S'A. M. Moreno'
p1372
S'CASE'
p1373
tp1374
I2
s(S'Bernd Mahr'
p1375
S'1985'
p1376
tp1377
I1
s(S'Egon B\xc3\xb6rger'
p1378
S'WAM'
p1379
tp1380
I1
s(S'Jan M. Zytkow'
p1381
S'Mining'
p1382
tp1383
I1
s(S'S. Torres'
p1384
S'rhythm'
p1385
tp1386
I1
s(S'Paolo Ciancarini'
p1387
S'Tour'
p1388
tp1389
I1
s(S'Arto Salomaa'
p1390
S'ManyValued'
p1391
tp1392
I1
s(S'Luis E. Anido-Rif\xc3\xb3n'
p1393
S'Environments'
p1394
tp1395
I1
s(S'Serge Abiteboul'
p1396
S'Schemas'
p1397
tp1398
I1
s(S'Vibby Gottemukkala'
p1399
S'System'
p1400
tp1401
I1
s(S'Luis E. Anido-Rif\xc3\xb3n'
p1402
S'Training'
p1403
tp1404
I1
s(S'Vibby Gottemukkala'
p1405
S'Lock'
p1406
tp1407
I1
s(S'Hartmut Ehrig'
p1408
S'Review'
p1409
tp1410
I1
s(S'Oliver Jung'
p1411
S'WebAnwendungen'
p1412
tp1413
I1
s(S'Ricardo L\xc3\xb3pez Pietro'
p1414
S'hyperspace'
p1415
tp1416
I1
s(S'G. Gonz\xc3\xa1lez'
p1417
S'CASE'
p1418
tp1419
I2
s(S'William L. Bynum'
p1420
S'Memory'
p1421
tp1422
I1
s(S'Yasufumi Takama'
p1423
S'Factors'
p1424
tp1425
I1
s(S'Arto Salomaa'
p1426
S'Cernys'
p1427
tp1428
I1
s(S'Yorick Wilks'
p1429
S'Adaptive'
p1430
tp1431
I1
s(S'Alexandru Mateescu'
p1432
S'Functions'
p1433
tp1434
I1
s(S'John Lim'
p1435
S'Experiments'
p1436
tp1437
I1
s(S'Sushil Jajodia'
p1438
S'SemanticsBased'
p1439
tp1440
I1
s(S'Ricardo L\xc3\xb3pez Pietro'
p1441
S'educational'
p1442
tp1443
I1
s(S'Manuel Caeiro'
p1444
S'Environments'
p1445
tp1446
I1
s(S'Jos\xc3\xa9 Bravo'
p1447
S'Learning'
p1448
tp1449
I1
s(S'Manuel Velasco'
p1450
S'Schemata'
p1451
tp1452
I1
s(S'Steven Blundy'
p1453
S'FPC'
p1454
tp1455
I1
s(S'Robin Milner'
p1456
S'Operational'
p1457
tp1458
I1
s(S'Q. Wu'
p1459
S'PatternClassification'
p1460
tp1461
I1
s(S'Roger King'
p1462
S'Semantic'
p1463
tp1464
I1
s(S'Manuel Velasco'
p1465
S'Cardinality'
p1466
tp1467
I1
s(S'Jos\xc3\xa9 Luis Fern\xc3\xa1ndez Alem\xc3\xa1n'
p1468
S'Semantics'
p1469
tp1470
I1
s(S'Tobin J. Lehman'
p1471
S'Lock'
p1472
tp1473
I1
s(S'David Maier'
p1474
S'WorkstationServer'
p1475
tp1476
I1
s(S'Robin Milner'
p1477
S'Semantics'
p1478
tp1479
I1
s(S'Divesh Srivastava'
p1480
S'Coral'
p1481
tp1482
I1
s(S'Luis E. Anido-Rif\xc3\xb3n'
p1483
S'Collaborative'
p1484
tp1485
I1
s(S'Peter van Emde Boas'
p1486
S'Machine'
p1487
tp1488
I1
s(S'Luis E. Anido-Rial'
p1489
S'Interconnecting'
p1490
tp1491
I1
s(S'Manuel Ortega'
p1492
S'Drawing'
p1493
tp1494
I1
s(S'Andr\xc3\xa9 Oosterlinck'
p1495
S'Bayesian'
p1496
tp1497
I1
s(S'Fran\xc3\xa7ois Bancilhon'
p1498
S'O2'
p1499
tp1500
I1
s(S'Luis E. Anido-Rif\xc3\xb3n'
p1501
S'Scenarios'
p1502
tp1503
I1
s(S'Luc Boasson'
p1504
S'ContextFree'
p1505
tp1506
I1
s(S'Yasufumi Takama'
p1507
S'Imagination'
p1508
tp1509
I1
s(S'Jos\xc3\xa9 Ambrosio Toval \xc3\x81lvarez'
p1510
S'Metamodels'
p1511
tp1512
I1
s(S'Hartmut Ehrig'
p1513
S'1985'
p1514
tp1515
I1
s(S'Matteo Pampolini'
p1516
S'Online'
p1517
tp1518
I1
s(S'Sushil Jajodia'
p1519
S'Control'
p1520
tp1521
I1
s(S'Ricardo L\xc3\xb3pez Pietro'
p1522
S'With'
p1523
tp1524
I1
s(S'William L. Bynum'
p1525
S'Management'
p1526
tp1527
I1
s(S'Francisco Reverbell'
p1528
S'Persistence'
p1529
tp1530
I1
s(S'Crescencio Bravo'
p1531
S'Actions'
p1532
tp1533
I1
s(S'Antonio Di Leva'
p1534
S'approach'
p1535
tp1536
I1
s(S'Omri Serlin'
p1537
S'DebitCredit'
p1538
tp1539
I1
s(S'F. Manfredi'
p1540
S'Design'
p1541
tp1542
I1
s(S'G. Gonz\xc3\xa1lez'
p1543
S'Software'
p1544
tp1545
I1
s(S'Qi Fan Chen'
p1546
S'Algorithms'
p1547
tp1548
I1
s(S'Vipul Kashyap'
p1549
S'Metadata'
p1550
tp1551
I1
s(S'Thomas W. Reps'
p1552
S'Analysis'
p1553
tp1554
I1
s(S'Daniela Petrelli'
p1555
S'Adaptive'
p1556
tp1557
I1
s(S'Kim B. Bruce'
p1558
S'The'
p1559
tp1560
I1
s(S'Vineeth Kumar Paleri'
p1561
S'Generation'
p1562
tp1563
I1
s(S'Sylvia L. Osborn'
p1564
S'Design'
p1565
tp1566
I1
s(S'David C. Richardson'
p1567
S'Data'
p1568
tp1569
I1
s(S'Jim Diederich'
p1570
S'Objects'
p1571
tp1572
I1
s(S'Tom\xc3\xa1s A. P\xc3\xa9rez'
p1573
S'construction'
p1574
tp1575
I1
s(S'Didier Tallot'
p1576
S'Building'
p1577
tp1578
I1
s(S'R. Conejo'
p1579
S'Collares'
p1580
tp1581
I1
s(S'Liliana Favre'
p1582
S'Static'
p1583
tp1584
I1
s(S'Paris C. Kanellakis'
p1585
S'Method'
p1586
tp1587
I1
s(S'Yasuyuki Sumi'
p1588
S'Daily'
p1589
tp1590
I1
s(S'Stephanie Forrest'
p1591
S'Algorithms'
p1592
tp1593
I1
s(S'Mira Balaban'
p1594
S'Enforcing'
p1595
tp1596
I1
s(S'Marian H. Nodine'
p1597
S'Optimization'
p1598
tp1599
I1
s(S'M. J. Fern\xc3\xa1ndez'
p1600
S'Creating'
p1601
tp1602
I1
s(S'Thom W. Fr\xc3\xbchwirth'
p1603
S'Programs'
p1604
tp1605
I1
s(S'Elizabeth A. Kendall'
p1606
S'Reusable'
p1607
tp1608
I1
s(S'Tom\xc3\xa1s A. P\xc3\xa9rez'
p1609
S'element'
p1610
tp1611
I1
s(S'Ravi Mukkamala'
p1612
S'Transaction'
p1613
tp1614
I1
s(S'Coral Calero'
p1615
S'Data'
p1616
tp1617
I1
s(S'Wolfgang Klas'
p1618
S'Management'
p1619
tp1620
I1
s(S'F. J. Blanco'
p1621
S'tools'
p1622
tp1623
I1
s(S'Bharat G. Mitbander'
p1624
S'Mining'
p1625
tp1626
I1
s(S'Alexander Bockmayr'
p1627
S'Solving'
p1628
tp1629
I1
s(S'Claude Delobel'
p1630
S'Language'
p1631
tp1632
I1
s(S'Jos\xc3\xa9 Ambrosio Toval \xc3\x81lvarez'
p1633
S'Formalizing'
p1634
tp1635
I1
s(S'Witold Staniszkis'
p1636
S'Design'
p1637
tp1638
I1
s(S'Elena Castro'
p1639
S'Relational'
p1640
tp1641
I1
s(S'A. Gonz\xc3\xa1lez'
p1642
S'purposes'
p1643
tp1644
I1
s(S'P. A. Massey'
p1645
S'Applications'
p1646
tp1647
I1
s(S'Jan L. G. Dietz'
p1648
S'Consistent'
p1649
tp1650
I1
s(S'Martin Gaedke'
p1651
S'fr'
p1652
tp1653
I1
s(S'M. N. Moreno'
p1654
S'Engineering'
p1655
tp1656
I1
s(S'Ellen Riloff'
p1657
S'Information'
p1658
tp1659
I1
s(S'Rolf Hennicker'
p1660
S'Web'
p1661
tp1662
I1
s(S'Alfredo Fern\xc3\xa1ndez-Valmayor'
p1663
S'Educational'
p1664
tp1665
I1
s(S'S. Todd'
p1666
S'Binary'
p1667
tp1668
I1
s(S'Benjamin C. Pierce'
p1669
S'Foundational'
p1670
tp1671
I1
s(S'F. J. Gonz\xc3\xa1lez'
p1672
S'sound'
p1673
tp1674
I1
s(S'Feliks Kluzniak'
p1675
S'Perspective'
p1676
tp1677
I1
s(S'Arto Salomaa'
p1678
S'Functions'
p1679
tp1680
I1
s(S'Paul Tarau'
p1681
S'Logic'
p1682
tp1683
I1
s(S'M. J. Fern\xc3\xa1ndez'
p1684
S'Webbased'
p1685
tp1686
I1
s(S'Piero Fraternali'
p1687
S'Language'
p1688
tp1689
I1
s(S'Roberto Zicari'
p1690
S'System'
p1691
tp1692
I1
s(S'Padhraic Smyth'
p1693
S'Information'
p1694
tp1695
I1
s(S'A. Gonz\xc3\xa1lez'
p1696
S'An'
p1697
tp1698
I1
s(S'Juli\xc3\xa1n Guti\xc3\xa9rrez Serrano'
p1699
S'Hypermedia'
p1700
tp1701
I1
s(S'Armin B. Cremers'
p1702
S'Information'
p1703
tp1704
I1
s(S'Manuel Ortega'
p1705
S'Design'
p1706
tp1707
I1
s(S'Divesh Srivastava'
p1708
S'Querying'
p1709
tp1710
I1
s(S'M. J. Fern\xc3\xa1ndez'
p1711
S'Environments'
p1712
tp1713
I1
s(S'Thomas Lemke'
p1714
S'Systems'
p1715
tp1716
I1
s(S'Jan M. Zytkow'
p1717
S'Interactive'
p1718
tp1719
I1
s(S'Subramanian Rajagopalan'
p1720
S'Instuction'
p1721
tp1722
I1
s(S'Juli\xc3\xa1n Guti\xc3\xa9rrez Serrano'
p1723
S'Pedagogical'
p1724
tp1725
I1
s(S'Antonio Navarro'
p1726
S'Design'
p1727
tp1728
I1
s(S'Vance E. Waddle'
p1729
S'An'
p1730
tp1731
I1
s(S'Thomas W. Reps'
p1732
S'Applications'
p1733
tp1734
I1
s(S'James Hatfield'
p1735
S'Sequence'
p1736
tp1737
I1
s(S'Jos\xc3\xa9 Luis Sierra'
p1738
S'Development'
p1739
tp1740
I1
s(S'B. Curto'
p1741
S'ADAM'
p1742
tp1743
I1
s(S'Manuel Caeiro'
p1744
S'Scenarios'
p1745
tp1746
I1
s(S'Tobin J. Lehman'
p1747
S'System'
p1748
tp1749
I1
s(S'M. Howard Williams'
p1750
S'Applications'
p1751
tp1752
I1
s(S'Henk Barendregt'
p1753
S'Language'
p1754
tp1755
I1
s(S'Gerhard Widmer'
p1756
S'Machine'
p1757
tp1758
I1
s(S'Alexiei Dingli'
p1759
S'Extraction'
p1760
tp1761
I1
s(S'Robin Milner'
p1762
S'Algebraic'
p1763
tp1764
I1
s(S'Iakovos Motakis'
p1765
S'Reasoning'
p1766
tp1767
I1
s(S'F\xc3\xa9lix Buend\xc3\xada'
p1768
S'Modules'
p1769
tp1770
I1
s(S'Wolfgang Thomas'
p1771
S'Infinite'
p1772
tp1773
I1
s(S'Alexandru Mateescu'
p1774
S'Truth'
p1775
tp1776
I1
s(S'Alexandru Mateescu'
p1777
S'Cernys'
p1778
tp1779
I1
s(S'F. Manfredi'
p1780
S'Base'
p1781
tp1782
I1
s(S'Henk Barendregt'
p1783
S'TALE'
p1784
tp1785
I1
s(S'James Hatfield'
p1786
S'FPC'
p1787
tp1788
I1
s(S'Marian H. Nodine'
p1789
S'Techniques'
p1790
tp1791
I1
s(S'Manuel Alfonseca'
p1792
S'Courses'
p1793
tp1794
I1
s(S'Vishu Krishnamurthy'
p1795
S'Your'
p1796
tp1797
I1
s(S'Liliana Favre'
p1798
S'ObjectOriented'
p1799
tp1800
I1
s(S'Markus Dieckmann'
p1801
S'Implementierungstechnologien'
p1802
tp1803
I1
s(S'J. V. Benlloch'
p1804
S'Interconnecting'
p1805
tp1806
I1
s(S'Sandeepan Banerjee'
p1807
S'Data'
p1808
tp1809
I1
s(S'Jos\xc3\xa9 Luis Fern\xc3\xa1ndez Alem\xc3\xa1n'
p1810
S'Formalizing'
p1811
tp1812
I1
s(S'Antonio Albano'
p1813
S'Design'
p1814
tp1815
I1
s(S'Manuel Alfonseca'
p1816
S'Virtual'
p1817
tp1818
I1
s(S'Paolo Conforto'
p1819
S'Solutions'
p1820
tp1821
I1
s(S'Francisco Jos\xc3\xa9 Garc\xc3\xada'
p1822
S'upper'
p1823
tp1824
I1
s(S'Joann J. Ordille'
p1825
S'Descriptive'
p1826
tp1827
I1
s(S'Vipul Kashyap'
p1828
S'MultiMedia'
p1829
tp1830
I1
s(S'Baltasar Fern\xc3\xa1ndez-Manj\xc3\xb3n'
p1831
S'Using'
p1832
tp1833
I1
s(S'Jan M. Zytkow'
p1834
S'Databases'
p1835
tp1836
I1
s(S'Robert E. Noonan'
p1837
S'Memory'
p1838
tp1839
I1
s(S'Vibby Gottemukkala'
p1840
S'Performance'
p1841
tp1842
I1
s(S'Manuel Alfonseca'
p1843
S'Distance'
p1844
tp1845
I1
s(S'Paris C. Kanellakis'
p1846
S'Elements'
p1847
tp1848
I1
s(S'Wolfgang Klas'
p1849
S'Playout'
p1850
tp1851
I1
s(S'Clark Elliott'
p1852
S'Computing'
p1853
tp1854
I1
s(S"Patrick E. O'Neil"
p1855
S'Set'
p1856
tp1857
I1
s(S'Rodney M. Goodman'
p1858
S'Information'
p1859
tp1860
I1
s(S'M. N. Moreno'
p1861
S'tools'
p1862
tp1863
I1
s(S'Marc H. Scholl'
p1864
S'Design'
p1865
tp1866
I1
s(S'Francisco Reverbell'
p1867
S'ORBODBMS'
p1868
tp1869
I1
s(S'Paris C. Kanellakis'
p1870
S'Theory'
p1871
tp1872
I1
s(S'James C. Lester'
p1873
S'Synthesis'
p1874
tp1875
I1
s(S'Rajiv Gupta'
p1876
S'Data'
p1877
tp1878
I1
s(S'Jean Berstel'
p1879
S'ContextFree'
p1880
tp1881
I1
s(S'Vishu Krishnamurthy'
p1882
S'Oracle'
p1883
tp1884
I1
s(S'Manuel Alfonseca'
p1885
S'Multimedia'
p1886
tp1887
I1
s(S'Sylvia L. Osborn'
p1888
S'Systems'
p1889
tp1890
I1
s(S'Jos\xc3\xa9 Luis Sierra'
p1891
S'Hypermedia'
p1892
tp1893
I1
s(S'A. M. Moreno'
p1894
S'upper'
p1895
tp1896
I1
s(S'Rudolf Kruse'
p1897
S'Representation'
p1898
tp1899
I1
s(S'Alfredo Fern\xc3\xa1ndez-Valmayor'
p1900
S'Analysis'
p1901
tp1902
I1
s(S'P. A. Massey'
p1903
S'Database'
p1904
tp1905
I1
s(S'Donna Harman'
p1906
S'Query'
p1907
tp1908
I1
s(S'Roberto Zicari'
p1909
S'An'
p1910
tp1911
I1
s(S'Yasufumi Takama'
p1912
S'Rare'
p1913
tp1914
I1
s(S'Dwight Deugo'
p1915
S'Reusable'
p1916
tp1917
I1
s(S'Peretz Shoval'
p1918
S'Methods'
p1919
tp1920
I1
s(S'Simon Parsons'
p1921
S'Argumentation'
p1922
tp1923
I1
s(S'Alexiei Dingli'
p1924
S'Document'
p1925
tp1926
I1
s(S'Tobin J. Lehman'
p1927
S'The'
p1928
tp1929
I1
s(S'Vineeth Kumar Paleri'
p1930
S'Code'
p1931
tp1932
I1
s(S'Didier Plateau'
p1933
S'User'
p1934
tp1935
I1
s(S'Luis E. Anido-Rial'
p1936
S'Courseware'
p1937
tp1938
I1
s(S'Philippe Futtersack'
p1939
S'Architectures'
p1940
tp1941
I1
s(S'Yasufumi Takama'
p1942
S'Effects'
p1943
tp1944
I1
s(S'Vance E. Waddle'
p1945
S'System'
p1946
tp1947
I1
s(S'Witold Staniszkis'
p1948
S'Base'
p1949
tp1950
I1
s(S'Richard M. Karp'
p1951
S'Algorithmic'
p1952
tp1953
I1
s(S'Carlo Zaniolo'
p1954
S'Metaqueries'
p1955
tp1956
I1
s(S'Egon B\xc3\xb6rger'
p1957
S'The'
p1958
tp1959
I1
s(S'Jos\xc3\xa9 \xc3\x81ngel Vadillo Zorita'
p1960
S'Hypermedia'
p1961
tp1962
I1
s(S'Rajiv Gupta'
p1963
S'Flow'
p1964
tp1965
I1
s(S'Yasufumi Takama'
p1966
S'Hidden'
p1967
tp1968
I1
s(S'Helmut Thoma'
p1969
S'und'
p1970
tp1971
I1
s(S'John Darlington'
p1972
S'The'
p1973
tp1974
I1
s(S'Vishu Krishnamurthy'
p1975
S'Extensibility'
p1976
tp1977
I1
s(S'Heiko Thimm'
p1978
S'Database'
p1979
tp1980
I1
s(S'Antonio Navarro'
p1981
S'Development'
p1982
tp1983
I1
s(S'Fabio Ciravegna'
p1984
S'Annotation'
p1985
tp1986
I1
s(S'Antonio Di Leva'
p1987
S'Design'
p1988
tp1989
I2
s(S'Ravi S. Sandhu'
p1990
S'Authentication'
p1991
tp1992
I1
s(S'Mechthild Rohen'
p1993
S'Modules'
p1994
tp1995
I1
s(S'Padhraic Smyth'
p1996
S'Induction'
p1997
tp1998
I1
s(S'Keng Siau'
p1999
S'GOMS'
p2000
tp2001
I1
s(S'Antonio Di Leva'
p2002
S'Relational'
p2003
tp2004
I1
s(S'Julian Davies'
p2005
S'POP2based'
p2006
tp2007
I1
s(S'John A. Stankovic'
p2008
S'Embedded'
p2009
tp2010
I1
s(S'Steven P. Wartik'
p2011
S'Algorithms'
p2012
tp2013
I1
s(S'M. Howard Williams'
p2014
S'Prolog'
p2015
tp2016
I1
s(S'Bernd Mahr'
p2017
S'Driving'
p2018
tp2019
I1
s(S'Keng Siau'
p2020
S'Language'
p2021
tp2022
I1
s(S'Nadia Busi'
p2023
S'Models'
p2024
tp2025
I1
s(S'Tom\xc3\xa1s A. P\xc3\xa9rez'
p2026
S'Limiting'
p2027
tp2028
I1
s(S'Juli\xc3\xa1n Guti\xc3\xa9rrez Serrano'
p2029
S'access'
p2030
tp2031
I1
s(S'Yasufumi Takama'
p2032
S'Scenic'
p2033
tp2034
I1
s(S'Alfredo Fern\xc3\xa1ndez-Valmayor'
p2035
S'Using'
p2036
tp2037
I1
s(S'Alexander Bockmayr'
p2038
S'Constraints'
p2039
tp2040
I1
s(S'Subramanian Rajagopalan'
p2041
S'Compiler'
p2042
tp2043
I1
s(S'Mario Piattini'
p2044
S'Warehouse'
p2045
tp2046
I1
s(S'Hartmut Ehrig'
p2047
S'1997'
p2048
tp2049
I1
s(S'Hock Chuan Chan'
p2050
S'Experiments'
p2051
tp2052
I1
s(S'Andr\xc3\xa9 Oosterlinck'
p2053
S'Integration'
p2054
tp2055
I1
s(S'Kshitij Shah'
p2056
S'Metadata'
p2057
tp2058
I1
s(S'Ricardo L\xc3\xb3pez Pietro'
p2059
S'adaptive'
p2060
tp2061
I1
s(S'Bernd Mahr'
p2062
S'Software'
p2063
tp2064
I1
s(S'Divesh Srivastava'
p2065
S'Information'
p2066
tp2067
I1
s(S'Ravi Mukkamala'
p2068
S'Concurrency'
p2069
tp2070
I1
s(S'Q. Wu'
p2071
S'Approaches'
p2072
tp2073
I1
s(S'S. Bing Yao'
p2074
S'Design'
p2075
tp2076
I2
s(S'Shaul Dar'
p2077
S'Augmenting'
p2078
tp2079
I1
s(S'F. J. Gonz\xc3\xa1lez'
p2080
S'System'
p2081
tp2082
I1
s(S'Nadia Busi'
p2083
S'Coordination'
p2084
tp2085
I1
s(S'S. Todd'
p2086
S'An'
p2087
tp2088
I1
s(S'Jos\xc3\xa9 Luis Sierra'
p2089
S'Applications'
p2090
tp2091
I1
s(S'Michael D. Soo'
p2092
S'Data'
p2093
tp2094
I1
s(S'Simon Parsons'
p2095
S'Chance'
p2096
tp2097
I1
s(S'Jos\xc3\xa9 \xc3\x81ngel Vadillo Zorita'
p2098
S'Strategies'
p2099
tp2100
I1
s(S'Steven A. Demurjian'
p2101
S'Software'
p2102
tp2103
I1
s(S'Tom\xc3\xa1s A. P\xc3\xa9rez'
p2104
S'educational'
p2105
tp2106
I1
s(S'Wolfgang Thomas'
p2107
S'Automata'
p2108
tp2109
I1
s(S'F. J. Gonz\xc3\xa1lez'
p2110
S'articulated'
p2111
tp2112
I1
s(S'Gregory R. Andrews'
p2113
S'Programming'
p2114
tp2115
I1
s(S'Roberto Gorrieri'
p2116
S'Models'
p2117
tp2118
I1
s(S'Antonio Albano'
p2119
S'DATAID'
p2120
tp2121
I1
s(S'Antonio Navarro'
p2122
S'Domain'
p2123
tp2124
I1
s(S'Sandeepan Banerjee'
p2125
S'Your'
p2126
tp2127
I1
s(S'Fernando V\xc3\xa9lez'
p2128
S'Architectures'
p2129
tp2130
I1
s(S'Manuel Alfonseca'
p2131
S'Education'
p2132
tp2133
I1
s(S"Patrick E. O'Neil"
p2134
S'Database'
p2135
tp2136
I1
s(S'Paloma Martinez'
p2137
S'Relational'
p2138
tp2139
I1
s(S'H. V. Jagadish'
p2140
S'Indexing'
p2141
tp2142
I1
s(S'A. J. Field'
p2143
S'Languages'
p2144
tp2145
I1
s(S'Ver\xc3\xb3nica Dahl'
p2146
S'Programming'
p2147
tp2148
I2
s(S'David B. Fogel'
p2149
S'Evolutionary'
p2150
tp2151
I1
s(S'Valeria De Antonellis'
p2152
S'Database'
p2153
tp2154
I1
s(S'Jos\xc3\xa9 Ambrosio Toval \xc3\x81lvarez'
p2155
S'Semantics'
p2156
tp2157
I1
s(S'Yorick Wilks'
p2158
S'Extraction'
p2159
tp2160
I1
s(S'Pierangela Samarati'
p2161
S'Authentication'
p2162
tp2163
I1
s(S'Daniela Petrelli'
p2164
S'Effective'
p2165
tp2166
I1
s(S'Iakovos Motakis'
p2167
S'Active'
p2168
tp2169
I1
s(S'Steven P. Wartik'
p2170
S'Hashing'
p2171
tp2172
I1
s(S'Subramanian Rajagopalan'
p2173
S'Long'
p2174
tp2175
I1
s(S'Mart\xc3\xadn Llamas Nistal'
p2176
S'Scenarios'
p2177
tp2178
I1
s(S'James C. Lester'
p2179
S'Lifelike'
p2180
tp2181
I1
s(S'Liliana Favre'
p2182
S'Approach'
p2183
tp2184
I1
s(S'Stephanie Forrest'
p2185
S'Genetic'
p2186
tp2187
I1
s(S'Fabio Ciravegna'
p2188
S'Using'
p2189
tp2190
I1
s(S'Vibby Gottemukkala'
p2191
S'Evaluation'
p2192
tp2193
I1
s(S'David J. DeWitt'
p2194
S'WorkstationServer'
p2195
tp2196
I1
s(S'Richard M. Karp'
p2197
S'Revolution'
p2198
tp2199
I1
s(S'Borys Omelayenko'
p2200
S'Integration'
p2201
tp2202
I1
s(S'Vibby Gottemukkala'
p2203
S'Design'
p2204
tp2205
I1
s(S'Divesh Srivastava'
p2206
S'Database'
p2207
tp2208
I1
s(S'Antonio Albano'
p2209
S'ComputerAided'
p2210
tp2211
I1
s(S'A. J. Field'
p2212
S'The'
p2213
tp2214
I1
s(S'Manuel Serrano'
p2215
S'Quality'
p2216
tp2217
I1
s(S'Antonio Di Leva'
p2218
S'Environment'
p2219
tp2220
I1
s(S'F. J. Gonz\xc3\xa1lez'
p2221
S'training'
p2222
tp2223
I1
s(S'Mira Balaban'
p2224
S'Methods'
p2225
tp2226
I1
s(S'Jean-Louis Lassez'
p2227
S'Revisited'
p2228
tp2229
I1
s(S'R. Conejo'
p2230
S'Ortofnicos'
p2231
tp2232
I1
s(S'P. Giolito'
p2233
S'Relational'
p2234
tp2235
I1
s(S'A. Gonz\xc3\xa1lez'
p2236
S'hyperspace'
p2237
tp2238
I1
s(S'Sharad Malik'
p2239
S'Word'
p2240
tp2241
I1
s(S'Subramanian Rajagopalan'
p2242
S'Digital'
p2243
tp2244
I1
s(S'Egon B\xc3\xb6rger'
p2245
S'Definition'
p2246
tp2247
I1
s(S'Pierangela Samarati'
p2248
S'Access'
p2249
tp2250
I1
s(S'Benjamin C. Pierce'
p2251
S'Programming'
p2252
tp2253
I1
s(S'Jack Milton'
p2254
S'Design'
p2255
tp2256
I1
s(S'Hiroko Shoji'
p2257
S'Chance'
p2258
tp2259
I1
s(S'Serge Abiteboul'
p2260
S'Query'
p2261
tp2262
I1
s(S'Ahmed K. Elmagarmid'
p2263
S'Transaction'
p2264
tp2265
I1
s(S'Witold Staniszkis'
p2266
S'Data'
p2267
tp2268
I1
s(S'Ravi Murthy'
p2269
S'All'
p2270
tp2271
I1
s(S'Francisco Jos\xc3\xa9 Garc\xc3\xada'
p2272
S'CASE'
p2273
tp2274
I2
s(S'Bernd Mahr'
p2275
S'TAPSOFT'
p2276
tp2277
I1
s(S'Stefano Paraboschi'
p2278
S'Language'
p2279
tp2280
I1
s(S'Sharad Malik'
p2281
S'Digital'
p2282
tp2283
I1
s(S'Didier Plateau'
p2284
S'Environment'
p2285
tp2286
I1
s(S'S. Todd'
p2287
S'Interface'
p2288
tp2289
I1
s(S'Paul Suetens'
p2290
S'System'
p2291
tp2292
I1
s(S'Juan de Lara'
p2293
S'Reality'
p2294
tp2295
I1
s(S'Manuel Serrano'
p2296
S'Metrics'
p2297
tp2298
I1
s(S'A. J. Field'
p2299
S'Functional'
p2300
tp2301
I1
s(S'John Lim'
p2302
S'Natural'
p2303
tp2304
I1
s(S'Philippe Futtersack'
p2305
S'WorkstationServer'
p2306
tp2307
I1
s(S'Juli\xc3\xa1n Guti\xc3\xa9rrez Serrano'
p2308
S'Strategies'
p2309
tp2310
I1
s(S"Patrick E. O'Neil"
p2311
S'Benchmark'
p2312
tp2313
I1
s(S'David J. DeWitt'
p2314
S'Architectures'
p2315
tp2316
I1
s(S'Jane S. Richardson'
p2317
S'3D'
p2318
tp2319
I1
s(S'Christopher M. Bishop'
p2320
S'Networks'
p2321
tp2322
I1
s(S'Antonio Navarro'
p2323
S'Educational'
p2324
tp2325
I1
s(S'P. Giolito'
p2326
S'Codasyl'
p2327
tp2328
I1
s(S'Piero Fraternali'
p2329
S'Applications'
p2330
tp2331
I1
s(S'Francisco Jos\xc3\xa9 Garc\xc3\xada'
p2332
S'Engineering'
p2333
tp2334
I1
s(S'Dennis McLeod'
p2335
S'Models'
p2336
tp2337
I1
s(S'Julian Davies'
p2338
S'PLANNER'
p2339
tp2340
I1
s(S'Juli\xc3\xa1n Guti\xc3\xa9rrez Serrano'
p2341
S'user'
p2342
tp2343
I1
s(S'Tom\xc3\xa1s A. P\xc3\xa9rez'
p2344
S'user'
p2345
tp2346
I1
s(S'Tom\xc3\xa1s A. P\xc3\xa9rez'
p2347
S'adaptive'
p2348
tp2349
I1
s(S'Mira Balaban'
p2350
S'Integrity'
p2351
tp2352
I1
s(S'M. N. Moreno'
p2353
S'ADAM'
p2354
tp2355
I1
s(S'Jos\xc3\xa9 \xc3\x81ngel Vadillo Zorita'
p2356
S'systems'
p2357
tp2358
I1
s(S'Arto Salomaa'
p2359
S'DNA'
p2360
tp2361
I1
s(S'F\xc3\xa9lix Buend\xc3\xada'
p2362
S'Courseware'
p2363
tp2364
I1
s(S'Daniela Petrelli'
p2365
S'Using'
p2366
tp2367
I1
s(S'Jim Diederich'
p2368
S'Design'
p2369
tp2370
I1
s(S'Ehud Y. Shapiro'
p2371
S'Typed'
p2372
tp2373
I1
s(S'Sylvia L. Osborn'
p2374
S'ObjectOriented'
p2375
tp2376
I1
s(S'Jan L. G. Dietz'
p2377
S'Information'
p2378
tp2379
I1
s(S'Philippe Smets'
p2380
S'The'
p2381
tp2382
I1
s(S'Vijay Chandru'
p2383
S'Combinatorial'
p2384
tp2385
I1
s(S'Mira Balaban'
p2386
S'Model'
p2387
tp2388
I1
s(S'Donna Harman'
p2389
S'Feedback'
p2390
tp2391
I1
s(S'Martin Gaedke'
p2392
S'WebAnwendungen'
p2393
tp2394
I1
s(S'Jacob Stein'
p2395
S'ObjectOriented'
p2396
tp2397
I1
s(S'Jack Milton'
p2398
S'Messages'
p2399
tp2400
I1
s(S'Joxan Jaffar'
p2401
S'Programming'
p2402
tp2403
I1
s(S'Paolo Ciancarini'
p2404
S'Models'
p2405
tp2406
I1
s(S'Keng Siau'
p2407
S'Unified'
p2408
tp2409
I2
s(S'Martin Nussbaumer'
p2410
S'Implementierungstechnologien'
p2411
tp2412
I1
s(S'S. Torres'
p2413
S'training'
p2414
tp2415
I1
s(S'Ver\xc3\xb3nica Dahl'
p2416
S'Towards'
p2417
tp2418
I1
s(S'Paris C. Kanellakis'
p2419
S'Programming'
p2420
tp2421
I1
s(S'R. Conejo'
p2422
S'sound'
p2423
tp2424
I1
s(S'Sushil Jajodia'
p2425
S'Reduction'
p2426
tp2427
I1
s(S'Francisco Jos\xc3\xa9 Garc\xc3\xada'
p2428
S'Laboratory'
p2429
tp2430
I1
s(S'Manuel Alfonseca'
p2431
S'Reality'
p2432
tp2433
I1
s(S'Antonio Di Leva'
p2434
S'Database'
p2435
tp2436
I1
s(S'R. Venugopal'
p2437
S'Code'
p2438
tp2439
I1
s(S'Rodney M. Goodman'
p2440
S'Using'
p2441
tp2442
I1
s(S'Teodor C. Przymusinski'
p2443
S'Semantics'
p2444
tp2445
I1
s(S'Tom\xc3\xa1s A. P\xc3\xa9rez'
p2446
S'An'
p2447
tp2448
I1
s(S'Peter van Emde Boas'
p2449
S'Simulation'
p2450
tp2451
I1
s(S'Michael Weiss'
p2452
S'Coordination'
p2453
tp2454
I1
s(S'F\xc3\xa9lix Buend\xc3\xada'
p2455
S'WWW'
p2456
tp2457
I1
s(S'Jane S. Richardson'
p2458
S'Ore'
p2459
tp2460
I1
s(S'Q. Wu'
p2461
S'Heuristic'
p2462
tp2463
I1
s(S'Fran\xc3\xa7ois Bancilhon'
p2464
S'Language'
p2465
tp2466
I1
s(S'Jane S. Richardson'
p2467
S'Data'
p2468
tp2469
I1
s(S'Fred B. Schneider'
p2470
S'Concurrent'
p2471
tp2472
I1
s(S'Juli\xc3\xa1n Guti\xc3\xa9rrez Serrano'
p2473
S'educational'
p2474
tp2475
I1
s(S'A. M. Moreno'
p2476
S'tools'
p2477
tp2478
I1
s(S'Tom\xc3\xa1s A. P\xc3\xa9rez'
p2479
S'Hypermedia'
p2480
tp2481
I1
s(S'Marco Cremonini'
p2482
S'Internet'
p2483
tp2484
I1
s(S'Ravi Murthy'
p2485
S'Your'
p2486
tp2487
I1
s(S'Didier Plateau'
p2488
S'Looks'
p2489
tp2490
I1
s(S'J. Baker'
p2491
S'Databases'
p2492
tp2493
I1
s(S'Didier Plateau'
p2494
S'Introduction'
p2495
tp2496
I1
s(S'Peter Wegner'
p2497
S'ObjectOriented'
p2498
tp2499
I1
s(S'Wei-Min Shen'
p2500
S'Mining'
p2501
tp2502
I1
s(S'Andrea Omicini'
p2503
S'Technologies'
p2504
tp2505
I1
s(S'Hock Chuan Chan'
p2506
S'Interfaces'
p2507
tp2508
I1
s(S'Teodor C. Przymusinski'
p2509
S'Logic'
p2510
tp2511
I1
s(S'Kshitij Shah'
p2512
S'Quilt'
p2513
tp2514
I1
s(S'S. Torres'
p2515
S'Ortofnicos'
p2516
tp2517
I1
s(S'Michael J. Maher'
p2518
S'Programming'
p2519
tp2520
I1
s(S'Omri Serlin'
p2521
S'The'
p2522
tp2523
I1
s(S'S. Torres'
p2524
S'articulated'
p2525
tp2526
I1
s(S'P. Giolito'
p2527
S'Logical'
p2528
tp2529
I1
s(S'William B. Frakes'
p2530
S'Algorithms'
p2531
tp2532
I1
s(S'Helen Pull'
p2533
S'Functional'
p2534
tp2535
I1
s(S'Francisco Jos\xc3\xa9 Garc\xc3\xada'
p2536
S'Software'
p2537
tp2538
I1
s(S'P. Bertaina'
p2539
S'Relational'
p2540
tp2541
I1
s(S'Luis E. Anido-Rial'
p2542
S'WWW'
p2543
tp2544
I1
s(S'S. Bing Yao'
p2545
S'Methods'
p2546
tp2547
I1
s(S'Ciar\xc3\xa1n Bryce'
p2548
S'Security'
p2549
tp2550
I1
s(S'Sharad Malik'
p2551
S'Long'
p2552
tp2553
I1
s(S'Tom\xc3\xa1s A. P\xc3\xa9rez'
p2554
S'access'
p2555
tp2556
I1
s(S'Sharad Malik'
p2557
S'Retargetable'
p2558
tp2559
I1
s(S'Joann J. Ordille'
p2560
S'Name'
p2561
tp2562
I1
s(S'Ricardo L\xc3\xb3pez Pietro'
p2563
S'Guiding'
p2564
tp2565
I1
s(S'Michael J. Jipping'
p2566
S'The'
p2567
tp2568
I1
s(S'Michael J. Franklin'
p2569
S'Systems'
p2570
tp2571
I1
s(S'Edward A. Fox'
p2572
S'Hashing'
p2573
tp2574
I1
s(S'S. Bing Yao'
p2575
S'Integration'
p2576
tp2577
I1
s(S'Silvia Clerici'
p2578
S'ObjectOriented'
p2579
tp2580
I1
s(S'Gerhard Widmer'
p2581
S'Potential'
p2582
tp2583
I1
s(S'Hock Chuan Chan'
p2584
S'Review'
p2585
tp2586
I1
s(S'P. Giolito'
p2587
S'Design'
p2588
tp2589
I1
s(S'Lenwood S. Heath'
p2590
S'Hashing'
p2591
tp2592
I1
s(S'Tom\xc3\xa1s A. P\xc3\xa9rez'
p2593
S'hypermedia'
p2594
tp2595
I1
s(S'Hartmut Ehrig'
p2596
S'Software'
p2597
tp2598
I1
s(S'Juli\xc3\xa1n Guti\xc3\xa9rrez Serrano'
p2599
S'An'
p2600
tp2601
I1
s(S'Nora Koch'
p2602
S'Applications'
p2603
tp2604
I1
s(S'Coral Calero'
p2605
S'Metrics'
p2606
tp2607
I1
s(S'David Maier'
p2608
S'Systems'
p2609
tp2610
I1
s(S'Alexandru Mateescu'
p2611
S'Coloring'
p2612
tp2613
I1
s(S'Robert E. Noonan'
p2614
S'Environments'
p2615
tp2616
I1
s(S'Ellen Riloff'
p2617
S'Text'
p2618
tp2619
I1
s(S'Michael J. Franklin'
p2620
S'Caching'
p2621
tp2622
I1
s(S'Amit P. Sheth'
p2623
S'Building'
p2624
tp2625
I1
s(S'Dolores Cuandra'
p2626
S'Schemata'
p2627
tp2628
I1
s(S'Juli\xc3\xa1n Guti\xc3\xa9rrez Serrano'
p2629
S'systems'
p2630
tp2631
I1
s(S'B. Curto'
p2632
S'Using'
p2633
tp2634
I1
s(S'Sharad Malik'
p2635
S'Signal'
p2636
tp2637
I1
s(S'Sushil Jajodia'
p2638
S'Conflicts'
p2639
tp2640
I1
s(S'Henk Barendregt'
p2641
S'Functional'
p2642
tp2643
I1
s(S'Stefano Paraboschi'
p2644
S'Chimera'
p2645
tp2646
I1
s(S'James C. Lester'
p2647
S'Affective'
p2648
tp2649
I1
s(S'Ravi S. Sandhu'
p2650
S'Intrusion'
p2651
tp2652
I1
s(S'Mira Balaban'
p2653
S'ER'
p2654
tp2655
I1
s(S'Paul Suetens'
p2656
S'Integration'
p2657
tp2658
I1
s(S'Amit P. Sheth'
p2659
S'Metadata'
p2660
tp2661
I1
s(S'R. Venugopal'
p2662
S'Compiling'
p2663
tp2664
I1
s(S'Philippe Smets'
p2665
S'Transferable'
p2666
tp2667
I1
s(S'Coral Calero'
p2668
S'Quality'
p2669
tp2670
I1
s(S'Antonio Navarro'
p2671
S'Analysis'
p2672
tp2673
I1
s(S'J. V. Benlloch'
p2674
S'via'
p2675
tp2676
I1
s(S'Jos\xc3\xa9 \xc3\x81ngel Vadillo Zorita'
p2677
S'educational'
p2678
tp2679
I1
s(S'Ciar\xc3\xa1n Bryce'
p2680
S'Coordination'
p2681
tp2682
I1
s(S'Yasufumi Takama'
p2683
S'Events'
p2684
tp2685
I1
s(S'Tobin J. Lehman'
p2686
S'Design'
p2687
tp2688
I1
s(S'Jan L. G. Dietz'
p2689
S'Communication'
p2690
tp2691
I1
s(S'Simon Parsons'
p2692
S'Discovery'
p2693
tp2694
I1
s(S'Ver\xc3\xb3nica Dahl'
p2695
S'Logic'
p2696
tp2697
I1
s(S'Clark Elliott'
p2698
S'An'
p2699
tp2700
I1
s(S'R. Conejo'
p2701
S'training'
p2702
tp2703
I1
s(S'R. Venugopal'
p2704
S'Mobile'
p2705
tp2706
I1
s(S'David J. DeWitt'
p2707
S'Alternative'
p2708
tp2709
I1
s(S'David Scott Warren'
p2710
S'Database'
p2711
tp2712
I1
s(S'Juan de Lara'
p2713
S'Internet'
p2714
tp2715
I1
s(S'John A. Stankovic'
p2716
S'RealTime'
p2717
tp2718
I1
s(S'Stefano Paraboschi'
p2719
S'Designing'
p2720
tp2721
I1
s(S'Subramanian Rajagopalan'
p2722
S'Very'
p2723
tp2724
I1
s(S'Alexiei Dingli'
p2725
S'HumanCentred'
p2726
tp2727
I1
s(S'G. Gonz\xc3\xa1lez'
p2728
S'ADAM'
p2729
tp2730
I1
s(S'R. Conejo'
p2731
S'System'
p2732
tp2733
I1
s(S'Benjamin C. Pierce'
p2734
S'Languages'
p2735
tp2736
I1
s(S'Andr\xc3\xa9 Oosterlinck'
p2737
S'PatternClassification'
p2738
tp2739
I1
s(S'Thomas Lemke'
p2740
S'Modules'
p2741
tp2742
I1
s(S'A. Gonz\xc3\xa1lez'
p2743
S'adaptive'
p2744
tp2745
I1
s(S'Didier L\xc3\xa9v\xc3\xaaque'
p2746
S'User'
p2747
tp2748
I1
s(S'Richard T. Snodgrass'
p2749
S'Data'
p2750
tp2751
I1
s(S'Krishna G. Kulkarni'
p2752
S'SQL3'
p2753
tp2754
I1
s(S'Manuel Serrano'
p2755
S'Warehouse'
p2756
tp2757
I1
s(S'Rolf Hennicker'
p2758
S'UML'
p2759
tp2760
I1
s(S'Ravindra B. Keskar'
p2761
S'Compiling'
p2762
tp2763
I1
s(S'Tom\xc3\xa1s A. P\xc3\xa9rez'
p2764
S'knowledge'
p2765
tp2766
I1
s(S'Ravi Murthy'
p2767
S'Data'
p2768
tp2769
I1
s(S'Rolf Hennicker'
p2770
S'Systematic'
p2771
tp2772
I1
s(S'Tom\xc3\xa1s A. P\xc3\xa9rez'
p2773
S'Guiding'
p2774
tp2775
I1
s(S'David Maier'
p2776
S'Database'
p2777
tp2778
I1
s(S'Jim A. Crammond'
p2779
S'Applications'
p2780
tp2781
I1
s(S'Robin Milner'
p2782
S'Processes'
p2783
tp2784
I1
s(S'Oscar D\xc3\xadaz'
p2785
S'Tool'
p2786
tp2787
I1
s(S'Donna Harman'
p2788
S'Techniques'
p2789
tp2790
I1
s(S'Dean Rosenzweig'
p2791
S'WAM'
p2792
tp2793
I1
s(S'Subramanian Rajagopalan'
p2794
S'Retargetable'
p2795
tp2796
I1
s(S'Crescencio Bravo'
p2797
S'Learning'
p2798
tp2799
I1
s(S'Jos\xc3\xa9 Ambrosio Toval \xc3\x81lvarez'
p2800
S'UML'
p2801
tp2802
I1
s(S'Didier Plateau'
p2803
S'Building'
p2804
tp2805
I1
s(S'Matteo Pampolini'
p2806
S'Intelligent'
p2807
tp2808
I1
s(S'Marc van Leeuwen'
p2809
S'TALE'
p2810
tp2811
I1
s(S'A. Gonz\xc3\xa1lez'
p2812
S'Pedagogical'
p2813
tp2814
I1
s(S'M. R. Rao'
p2815
S'Optimization'
p2816
tp2817
I1
s(S'Patrick Borras'
p2818
S'Building'
p2819
tp2820
I1
s(S'Joann J. Ordille'
p2821
S'Internets'
p2822
tp2823
I1
s(S'Richard T. Snodgrass'
p2824
S'Overview'
p2825
tp2826
I1
s(S'B. Curto'
p2827
S'Software'
p2828
tp2829
I1
s(S'Silvia Clerici'
p2830
S'Models'
p2831
tp2832
I1
s(S'Carol Soderlund'
p2833
S'Sequence'
p2834
tp2835
I1
s(S'Rolf Hennicker'
p2836
S'Applications'
p2837
tp2838
I1
s(S'Valeria De Antonellis'
p2839
S'approach'
p2840
tp2841
I1
s(S'Roberto Gorrieri'
p2842
S'Coordination'
p2843
tp2844
I1
s(S'Abdelsalam Helal'
p2845
S'Transaction'
p2846
tp2847
I1
s(S'S. Bing Yao'
p2848
S'An'
p2849
tp2850
I1
s(S'Jan L. G. Dietz'
p2851
S'Modeling'
p2852
tp2853
I1
s(S'Vineeth Kumar Paleri'
p2854
S'Automatic'
p2855
tp2856
I1
s(S'Abdelsalam Heddaya'
p2857
S'Optimization'
p2858
tp2859
I1
s(S'R. Venugopal'
p2860
S'Safe'
p2861
tp2862
I1
s(S'Ravi Murthy'
p2863
S'Architecture'
p2864
tp2865
I1
s(S'Mario Piattini'
p2866
S'Metrics'
p2867
tp2868
I1
s(S'Emmanuel Waller'
p2869
S'Method'
p2870
tp2871
I1
s(S'Q. Wu'
p2872
S'System'
p2873
tp2874
I1
s(S'S. Bing Yao'
p2875
S'Network'
p2876
tp2877
I1
s(S'Joann J. Ordille'
p2878
S'Services'
p2879
tp2880
I1
s(S'Juan de Lara'
p2881
S'Virtual'
p2882
tp2883
I1
s(S'Piero Fraternali'
p2884
S'Designing'
p2885
tp2886
I1
s(S'Mechthild Rohen'
p2887
S'Logic'
p2888
tp2889
I1
s(S'Jakub Zavrel'
p2890
S'Information'
p2891
tp2892
I1
s(S'Witold Staniszkis'
p2893
S'DBMS'
p2894
tp2895
I1
s(S'M. N. Moreno'
p2896
S'Software'
p2897
tp2898
I1
s(S'Elizabeth A. Kendall'
p2899
S'Agent'
p2900
tp2901
I1
s(S'F. J. Gonz\xc3\xa1lez'
p2902
S'intensity'
p2903
tp2904
I1
s(S'Andrea Omicini'
p2905
S'Basic'
p2906
tp2907
I1
s(S'Paul Tarau'
p2908
S'Towards'
p2909
tp2910
I1
s(S'Nelson Mendon\xc3\xa7a Mattos'
p2911
S'Database'
p2912
tp2913
I1
s(S'Valeria De Antonellis'
p2914
S'ComputerAided'
p2915
tp2916
I1
s(S'Michael J. Maher'
p2917
S'Revisited'
p2918
tp2919
I1
s(S'Iakovos Motakis'
p2920
S'Temporal'
p2921
tp2922
I1
s(S'Juan C. Burguillo-Rial'
p2923
S'Courseware'
p2924
tp2925
I1
s(S'Borys Omelayenko'
p2926
S'RDFT'
p2927
tp2928
I1
s(S'James C. Lester'
p2929
S'Pedagogical'
p2930
tp2931
I1
s(S'Francisco Reverbell'
p2932
S'Distributed'
p2933
tp2934
I1
s(S'Didier Tallot'
p2935
S'Looks'
p2936
tp2937
I1
s(S'Hendrik Pieter Barendregt'
p2938
S'Calculus'
p2939
tp2940
I1
s(S'Nora Koch'
p2941
S'Systematic'
p2942
tp2943
I1
s(S'Joxan Jaffar'
p2944
S'Logic'
p2945
tp2946
I1
s(S'A. Mecchia'
p2947
S'Codasyl'
p2948
tp2949
I1
s(S'Peretz Shoval'
p2950
S'ER'
p2951
tp2952
I1
s(S'Roberto Gorrieri'
p2953
S'Guided'
p2954
tp2955
I1
s(S'Kim B. Bruce'
p2956
S'Paradigm'
p2957
tp2958
I1
s(S'Omri Serlin'
p2959
S'TPC'
p2960
tp2961
I1
s(S'Manuel Alfonseca'
p2962
S'Internet'
p2963
tp2964
I1
s(S'A. Gonz\xc3\xa1lez'
p2965
S'Guiding'
p2966
tp2967
I1
s(S'Ravi S. Sandhu'
p2968
S'Detection'
p2969
tp2970
I1
s(S'Stefano Paraboschi'
p2971
S'Applications'
p2972
tp2973
I1
s(S'Martin Nussbaumer'
p2974
S'fr'
p2975
tp2976
I1
s(S'Francisco Jos\xc3\xa9 Garc\xc3\xada'
p2977
S'Using'
p2978
tp2979
I1
s(S'Michael J. Jipping'
p2980
S'Language'
p2981
tp2982
I1
s(S'Arto Salomaa'
p2983
S'Coloring'
p2984
tp2985
I1
s(S'Dietmar Seipel'
p2986
S'KnowledgeBase'
p2987
tp2988
I1
s(S'Marc van Leeuwen'
p2989
S'Functional'
p2990
tp2991
I1
s(S'Vipul Kashyap'
p2992
S'Building'
p2993
tp2994
I1
s(S'S. Torres'
p2995
S'intensity'
p2996
tp2997
I1
s(S'Yukio Ohsawa'
p2998
S'Information'
p2999
tp3000
I1
s(S'S. Bing Yao'
p3001
S'Database'
p3002
tp3003
I2
s(S'F. J. Gonz\xc3\xa1lez'
p3004
S'Collares'
p3005
tp3006
I1
s(S'Jeff Rickel'
p3007
S'Computing'
p3008
tp3009
I1
s(S'Neelam Gupta'
p3010
S'Flow'
p3011
tp3012
I1
s(S'Juan de Lara'
p3013
S'Generated'
p3014
tp3015
I1
s(S'Alan R. Hevner'
p3016
S'Network'
p3017
tp3018
I1
s(S'Alan Watt'
p3019
S'Mainstream'
p3020
tp3021
I1
s(S'Amit P. Sheth'
p3022
S'Patch'
p3023
tp3024
I1
s(S'Michael J. Franklin'
p3025
S'Memory'
p3026
tp3027
I1
s(S'G. Gonz\xc3\xa1lez'
p3028
S'upper'
p3029
tp3030
I1
s(S'Thom W. Fr\xc3\xbchwirth'
p3031
S'Logic'
p3032
tp3033
I1
s(S'Barron C. Housel'
p3034
S'Database'
p3035
tp3036
I1
s(S'Marc H. Scholl'
p3037
S'ObjectOriented'
p3038
tp3039
I1
s(S'Bernd Mahr'
p3040
S'Theory'
p3041
tp3042
I1
s(S'Joxan Jaffar'
p3043
S'Scheme'
p3044
tp3045
I1
s(S'Francisco Reverbell'
p3046
S'Systems'
p3047
tp3048
I1
s(S'Yorick Wilks'
p3049
S'Using'
p3050
tp3051
I1
s(S'Andrea Omicini'
p3052
S'Enabling'
p3053
tp3054
I1
s(S'Antonio Di Leva'
p3055
S'Codasyl'
p3056
tp3057
I1
s(S'Michael J. Franklin'
p3058
S'Control'
p3059
tp3060
I1
s(S'Terry A. Halpin'
p3061
S'UML'
p3062
tp3063
I1
s(S'Bharat G. Mitbander'
p3064
S'Metaqueries'
p3065
tp3066
I1
s(S'Jeff Rickel'
p3067
S'Affective'
p3068
tp3069
I1
s(S'A. Mecchia'
p3070
S'DBMS'
p3071
tp3072
I1
s(S'M. Lacruz'
p3073
S'Drawing'
p3074
tp3075
I1
s(S'Vineeth Kumar Paleri'
p3076
S'Specifications'
p3077
tp3078
I1
s(S'Feliks Kluzniak'
p3079
S'The'
p3080
tp3081
I1
s(S'Tobin J. Lehman'
p3082
S'Evaluation'
p3083
tp3084
I1
s(S'Borys Omelayenko'
p3085
S'MetaOntology'
p3086
tp3087
I1
s(S'Juan C. Burguillo-Rial'
p3088
S'via'
p3089
tp3090
I1
s(S'John A. Stankovic'
p3091
S'Systems'
p3092
tp3093
I1
s(S'A. Gonz\xc3\xa1lez'
p3094
S'aid'
p3095
tp3096
I1
s(S'A. Gonz\xc3\xa1lez'
p3097
S'element'
p3098
tp3099
I1
s(S'Teodor C. Przymusinski'
p3100
S'Declarative'
p3101
tp3102
I1
s(S'Ciar\xc3\xa1n Bryce'
p3103
S'Internet'
p3104
tp3105
I1
s(S'Vibby Gottemukkala'
p3106
S'Manager'
p3107
tp3108
I1
s(S'Jakub Zavrel'
p3109
S'NLP'
p3110
tp3111
I1
s(S'Hartmut Ehrig'
p3112
S'Development'
p3113
tp3114
I1
s(S'Borys Omelayenko'
p3115
S'Service'
p3116
tp3117
I1
s(S'Dexter Kozen'
p3118
S'Programs'
p3119
tp3120
I1
s(S'Keng Siau'
p3121
S'Modeling'
p3122
tp3123
I1
s(S'Sandeepan Banerjee'
p3124
S'Architecture'
p3125
tp3126
I1
s(S'Witold Staniszkis'
p3127
S'Codasyl'
p3128
tp3129
I1
s(S'Jean-Louis Lassez'
p3130
S'Unification'
p3131
tp3132
I1
s(S'Luis E. Anido-Rial'
p3133
S'via'
p3134
tp3135
I1
s(S'Ulrich Schiel'
p3136
S'Maintenance'
p3137
tp3138
I1
s(S'Vipul Kashyap'
p3139
S'Patch'
p3140
tp3141
I1
s(S'Gerhard Widmer'
p3142
S'Music'
p3143
tp3144
I1
s(S'Paul Suetens'
p3145
S'Bayesian'
p3146
tp3147
I1
s(S'P. Giolito'
p3148
S'Environment'
p3149
tp3150
I1
s(S'Vishu Krishnamurthy'
p3151
S'Data'
p3152
tp3153
I1
s(S'Kim Marriott'
p3154
S'Revisited'
p3155
tp3156
I1
s(S'David C. Richardson'
p3157
S'HighGrade'
p3158
tp3159
I1
s(S'Pierangela Samarati'
p3160
S'Controls'
p3161
tp3162
I1
s(S'Manuel Caeiro'
p3163
S'Training'
p3164
tp3165
I1
s(S'Philippe Smets'
p3166
S'Belief'
p3167
tp3168
I2
s(S'James C. Lester'
p3169
S'Agents'
p3170
tp3171
I1
s(S'Alexandru Mateescu'
p3172
S'Road'
p3173
tp3174
I1
s(S'Mira Balaban'
p3175
S'Constraints'
p3176
tp3177
I1
s(S'Peter Wegner'
p3178
S'The'
p3179
tp3180
I1
s(S'Roberto Zicari'
p3181
S'Database'
p3182
tp3183
I1
s(S'David B. Fogel'
p3184
S'Why'
p3185
tp3186
I1
s(S'A. J. Field'
p3187
S'Logic'
p3188
tp3189
I1
s(S'Fred Engler'
p3190
S'Mapping'
p3191
tp3192
I1
s(S'David B. Fogel'
p3193
S'Algorithms'
p3194
tp3195
I1
s(S'Wolfgang Thomas'
p3196
S'Objects'
p3197
tp3198
I1
s(S'Ver\xc3\xb3nica Dahl'
p3199
S'Internet'
p3200
tp3201
I1
s(S'John C. Mitchell'
p3202
S'Type'
p3203
tp3204
I1
s(S'Wei-Min Shen'
p3205
S'Metaqueries'
p3206
tp3207
I1
s(S'J. V. Benlloch'
p3208
S'WWW'
p3209
tp3210
I1
s(S'Markus Dieckmann'
p3211
S'WebAnwendungen'
p3212
tp3213
I1
s(S'Rodney M. Goodman'
p3214
S'Rule'
p3215
tp3216
I1
s(S'M. Lacruz'
p3217
S'Collaborative'
p3218
tp3219
I1
s(S'F. J. Blanco'
p3220
S'Laboratory'
p3221
tp3222
I1
s(S'Michael J. Maher'
p3223
S'Unification'
p3224
tp3225
I1
s(S'Benjamin C. Pierce'
p3226
S'Calculi'
p3227
tp3228
I1
s(S'Erik Sandewall'
p3229
S'Actions'
p3230
tp3231
I1
s(S'Jakub Zavrel'
p3232
S'Extraction'
p3233
tp3234
I1
s(S'Volker Weispfenning'
p3235
S'Constraints'
p3236
tp3237
I1
s(S'Richard T. Snodgrass'
p3238
S'TQuel'
p3239
tp3240
I1
s(S'Paul Suetens'
p3241
S'Approaches'
p3242
tp3243
I1
s(S'Ricardo L\xc3\xb3pez Pietro'
p3244
S'Limiting'
p3245
tp3246
I1
s(S'David Maier'
p3247
S'Applications'
p3248
tp3249
I1
s(S'Marc van Leeuwen'
p3250
S'Programming'
p3251
tp3252
I1
s(S'Yasufumi Takama'
p3253
S'Information'
p3254
tp3255
I1
s(S'Elena Castro'
p3256
S'Cardinality'
p3257
tp3258
I1
s(S'A. Gonz\xc3\xa1lez'
p3259
S'Hypermedia'
p3260
tp3261
I1
s(S'B. Curto'
p3262
S'Laboratory'
p3263
tp3264
I1
s(S'Keng Siau'
p3265
S'Process'
p3266
tp3267
I1
s(S'Andrew Dinn'
p3268
S'Optimization'
p3269
tp3270
I1
s(S'Liliana Favre'
p3271
S'UML'
p3272
tp3273
I1
s(S'Julian Davies'
p3274
S'POLER'
p3275
tp3276
I1
s(S'Daniela Petrelli'
p3277
S'Annotation'
p3278
tp3279
I1
s(S'Marian H. Nodine'
p3280
S'Transaction'
p3281
tp3282
I1
s(S'M. Howard Williams'
p3283
S'Database'
p3284
tp3285
I1
s(S'Alfredo Fern\xc3\xa1ndez-Valmayor'
p3286
S'Hypermedia'
p3287
tp3288
I1
s(S'Nelson Mendon\xc3\xa7a Mattos'
p3289
S'Features'
p3290
tp3291
I1
s(S'Sandeepan Banerjee'
p3292
S'Oracle'
p3293
tp3294
I1
s(S'Steven Blundy'
p3295
S'Rice'
p3296
tp3297
I1
s(S'Yorick Wilks'
p3298
S'Annotation'
p3299
tp3300
I1
s(S'Stefano Antoniazzi'
p3301
S'Office'
p3302
tp3303
I1
s(S'F. J. Blanco'
p3304
S'CASE'
p3305
tp3306
I2
s(S'Craig Stanfill'
p3307
S'Retrieval'
p3308
tp3309
I1
s(S'Mechthild Rohen'
p3310
S'Information'
p3311
tp3312
I1
s(S'Didier Plateau'
p3313
S'Interfaces'
p3314
tp3315
I1
s(S'Volker Weispfenning'
p3316
S'Solving'
p3317
tp3318
I1
s(S'Markus Dieckmann'
p3319
S'fr'
p3320
tp3321
I1
s(S'Clark Elliott'
p3322
S'Affective'
p3323
tp3324
I1
s(S'Ricardo L\xc3\xb3pez Pietro'
p3325
S'knowledge'
p3326
tp3327
I1
s(S'Ehud Y. Shapiro'
p3328
S'Programs'
p3329
tp3330
I1
s(S'Ricardo L\xc3\xb3pez Pietro'
p3331
S'Strategies'
p3332
tp3333
I1
s(S'William L. Bynum'
p3334
S'Time'
p3335
tp3336
I1
s(S'Shaul Dar'
p3337
S'Transitive'
p3338
tp3339
I1
s(S'Alexiei Dingli'
p3340
S'Effective'
p3341
tp3342
I1
s(S'Daniela Petrelli'
p3343
S'Document'
p3344
tp3345
I1
s(S'Roger B. Dannenberg'
p3346
S'Dynamic'
p3347
tp3348
I1
s(S'Stefano Antoniazzi'
p3349
S'Intelligent'
p3350
tp3351
I1
s(S'A. Gonz\xc3\xa1lez'
p3352
S'access'
p3353
tp3354
I1
s(S'Silvia Clerici'
p3355
S'Transform'
p3356
tp3357
I1
s(S'Lee A. Hollaar'
p3358
S'Information'
p3359
tp3360
I1
s(S'Jean-Eric Pin'
p3361
S'Logic'
p3362
tp3363
I1
s(S'Michael J. Maher'
p3364
S'Logic'
p3365
tp3366
I2
s(S'Baltasar Fern\xc3\xa1ndez-Manj\xc3\xb3n'
p3367
S'Hypermedia'
p3368
tp3369
I1
s(S'Roger King'
p3370
S'Models'
p3371
tp3372
I1
s(S'Antonio Di Leva'
p3373
S'DATAID'
p3374
tp3375
I1
s(S'Valeria Mihalache'
p3376
S'Lindenmayer'
p3377
tp3378
I1
s(S'Miguel A. Redondo'
p3379
S'Design'
p3380
tp3381
I1
s(S'S. Torres'
p3382
S'parameters'
p3383
tp3384
I1
s(S'Hartmut Ehrig'
p3385
S'Forces'
p3386
tp3387
I1
s(S'Divesh Srivastava'
p3388
S'Representing'
p3389
tp3390
I1
s(S'Ravi S. Sandhu'
p3391
S'Controls'
p3392
tp3393
I1
s(S'Paris C. Kanellakis'
p3394
S'Relational'
p3395
tp3396
I1
s(S'Heiko Thimm'
p3397
S'Multimedia'
p3398
tp3399
I1
s(S'Crescencio Bravo'
p3400
S'Synchronous'
p3401
tp3402
I1
s(S'Vishu Krishnamurthy'
p3403
S'The'
p3404
tp3405
I1
s(S'Fernando V\xc3\xa9lez'
p3406
S'Three'
p3407
tp3408
I1
s(S"Patrick E. O'Neil"
p3409
S'Performance'
p3410
tp3411
I1
s(S'Jan L. G. Dietz'
p3412
S'Action'
p3413
tp3414
I1
s(S'Michael Weiss'
p3415
S'Agent'
p3416
tp3417
I1
s(S'Vibby Gottemukkala'
p3418
S'Database'
p3419
tp3420
I1
s(S'Nadia Busi'
p3421
S'Guided'
p3422
tp3423
I1
s(S'Yukio Ohsawa'
p3424
S'Effects'
p3425
tp3426
I1
s(S'Neelam Gupta'
p3427
S'Testing'
p3428
tp3429
I1
s(S'M. Lacruz'
p3430
S'Actions'
p3431
tp3432
I1
s(S'Barron C. Housel'
p3433
S'Integration'
p3434
tp3435
I1
s(S'P. Bertaina'
p3436
S'Codasyl'
p3437
tp3438
I1
s(S'Francisco Reverbell'
p3439
S'Integration'
p3440
tp3441
I1
s(S'Hendrik Pieter Barendregt'
p3442
S'Programming'
p3443
tp3444
I1
s(S'Q. Wu'
p3445
S'Bayesian'
p3446
tp3447
I1
s(S'Ellen Riloff'
p3448
S'Retrieval'
p3449
tp3450
I1
s(S'F\xc3\xa9lix Buend\xc3\xada'
p3451
S'Interconnecting'
p3452
tp3453
I1
s(S'Juli\xc3\xa1n Guti\xc3\xa9rrez Serrano'
p3454
S'construction'
p3455
tp3456
I1
s(S'Sanjay Manchanda'
p3457
S'Updates'
p3458
tp3459
I1
s(S'Roberto Gorrieri'
p3460
S'Tour'
p3461
tp3462
I1
s(S'Vance E. Waddle'
p3463
S'Integration'
p3464
tp3465
I1
s(S'Oliver Jung'
p3466
S'fr'
p3467
tp3468
I1
s(S'Abdelsalam Helal'
p3469
S'Techniques'
p3470
tp3471
I1
s(S'Yasufumi Takama'
p3472
S'Awareness'
p3473
tp3474
I1
s(S'Peter Wegner'
p3475
S'Paradigm'
p3476
tp3477
I1
s(S'A. Mecchia'
p3478
S'Design'
p3479
tp3480
I1
s(S'Juan C. Burguillo-Rial'
p3481
S'WWW'
p3482
tp3483
I1
s(S'John C. Mitchell'
p3484
S'Languages'
p3485
tp3486
I1
s(S'Arto Salomaa'
p3487
S'D0L'
p3488
tp3489
I1
s(S'P. Bertaina'
p3490
S'Environment'
p3491
tp3492
I1
s(S'Divesh Srivastava'
p3493
S'Complex'
p3494
tp3495
I1
s(S'Jakub Zavrel'
p3496
S'Classification'
p3497
tp3498
I1
s(S'James C. Lester'
p3499
S'An'
p3500
tp3501
I1
s(S'David C. Richardson'
p3502
S'Ore'
p3503
tp3504
I1
s(S'F. J. Blanco'
p3505
S'Software'
p3506
tp3507
I1
s(S'F. J. Blanco'
p3508
S'ADAM'
p3509
tp3510
I1
s(S'Kim B. Bruce'
p3511
S'Language'
p3512
tp3513
I1
s(S"Patrick E. O'Neil"
p3514
S'Query'
p3515
tp3516
I1
s(S'Jos\xc3\xa9 \xc3\x81ngel Vadillo Zorita'
p3517
S'purposes'
p3518
tp3519
I1
s(S'Gregory R. Andrews'
p3520
S'Concepts'
p3521
tp3522
I1
s(S'Jan L. G. Dietz'
p3523
S'Coherent'
p3524
tp3525
I1
s(S'Donna Harman'
p3526
S'Modification'
p3527
tp3528
I1
s(S'M. Lacruz'
p3529
S'Design'
p3530
tp3531
I1
s(S'Jack Milton'
p3532
S'Database'
p3533
tp3534
I1
s(S'Ulrich Schiel'
p3535
S'Databases'
p3536
tp3537
I1
s(S'Thom W. Fr\xc3\xbchwirth'
p3538
S'Typed'
p3539
tp3540
I1
s(S'Juan de Lara'
p3541
S'Education'
p3542
tp3543
I1
s(S'Vipul Kashyap'
p3544
S'Quilt'
p3545
tp3546
I1
s(S'R. Conejo'
p3547
S'parameters'
p3548
tp3549
I1
s(S'Manuel Alfonseca'
p3550
S'Using'
p3551
tp3552
I1
s(S'Sharad Malik'
p3553
S'Framework'
p3554
tp3555
I1
s(S'Fabio Ciravegna'
p3556
S'Extraction'
p3557
tp3558
I1
s(S'Bernd Mahr'
p3559
S'1997'
p3560
tp3561
I1
s(S'Paolo Conforto'
p3562
S'Flexible'
p3563
tp3564
I1
s(S'Sushil Jajodia'
p3565
S'Privacy'
p3566
tp3567
I1
s(S'Ellen Riloff'
p3568
S'Databases'
p3569
tp3570
I1
s(S'Claude Delobel'
p3571
S'Query'
p3572
tp3573
I1
s(S'Jos\xc3\xa9 \xc3\x81ngel Vadillo Zorita'
p3574
S'aid'
p3575
tp3576
I1
s(S'F. J. Gonz\xc3\xa1lez'
p3577
S'suprasegmental'
p3578
tp3579
I1
s(S'J. Baker'
p3580
S'Regularities'
p3581
tp3582
I1
s(S'Jos\xc3\xa9 Luis Fern\xc3\xa1ndez Alem\xc3\xa1n'
p3583
S'Metamodels'
p3584
tp3585
I1
s(S'Carlos Nieto'
p3586
S'Relationship'
p3587
tp3588
I1
s(S'F. J. Blanco'
p3589
S'Engineering'
p3590
tp3591
I1
s(S'Keng Siau'
p3592
S'Rational'
p3593
tp3594
I1
s(S'Juli\xc3\xa1n Guti\xc3\xa9rrez Serrano'
p3595
S'knowledge'
p3596
tp3597
I1
s(S'Juan de Lara'
p3598
S'Courses'
p3599
tp3600
I1
s(S'Crescencio Bravo'
p3601
S'Design'
p3602
tp3603
I1
s(S'Francisco Reverbell'
p3604
S'Object'
p3605
tp3606
I1
s(S'B. Curto'
p3607
S'Engineering'
p3608
tp3609
I1
s(S'Edward A. Fox'
p3610
S'Algorithms'
p3611
tp3612
I1
s(S'Jim A. Crammond'
p3613
S'Benchmarking'
p3614
tp3615
I1
s(S'Dean Rosenzweig'
p3616
S'Definition'
p3617
tp3618
I1
s(S'Antonio Di Leva'
p3619
S'ComputerAided'
p3620
tp3621
I1
s(S'Paul Suetens'
p3622
S'Heuristic'
p3623
tp3624
I1
s(S'Peter McBurney'
p3625
S'Discovery'
p3626
tp3627
I1
s(S'Tobin J. Lehman'
p3628
S'MemoryResident'
p3629
tp3630
I1
s(S'Hiroko Shoji'
p3631
S'Communication'
p3632
tp3633
I1
s(S'Manuel Velasco'
p3634
S'Relational'
p3635
tp3636
I1
s(S'Ehud Y. Shapiro'
p3637
S'Polymorphically'
p3638
tp3639
I1
s(S'Manuel Alfonseca'
p3640
S'Generated'
p3641
tp3642
I1
s(S'Stefano Antoniazzi'
p3643
S'Home'
p3644
tp3645
I1
s(S'Dexter Kozen'
p3646
S'Logics'
p3647
tp3648
I1
s(S'Daniela Petrelli'
p3649
S'Information'
p3650
tp3651
I1
s(S'David Maier'
p3652
S'Implementation'
p3653
tp3654
I1
s(S'Manuel Ortega'
p3655
S'Environments'
p3656
tp3657
I1
s(S'Jeff Rickel'
p3658
S'Lifelike'
p3659
tp3660
I1
s(S'Miguel A. Redondo'
p3661
S'Actions'
p3662
tp3663
I1
s(S'Henk Barendregt'
p3664
S'Type'
p3665
tp3666
I1
s(S'Mart\xc3\xadn Llamas Nistal'
p3667
S'Webbased'
p3668
tp3669
I1
s(S'A. Gonz\xc3\xa1lez'
p3670
S'systems'
p3671
tp3672
I1
s(S'Manuel Serrano'
p3673
S'Data'
p3674
tp3675
I1
s(S'Iakovos Motakis'
p3676
S'Databases'
p3677
tp3678
I1
s(S'Jacob Stein'
p3679
S'DBMS'
p3680
tp3681
I1
s(S'Borys Omelayenko'
p3682
S'Web'
p3683
tp3684
I1
s(S'Marc H. Scholl'
p3685
S'Physical'
p3686
tp3687
I1
s(S'Terry A. Halpin'
p3688
S'Information'
p3689
tp3690
I1
s(S'Ricardo L\xc3\xb3pez Pietro'
p3691
S'access'
p3692
tp3693
I1
s(S'Bernd Mahr'
p3694
S'Development'
p3695
tp3696
I1
s(S'Jos\xc3\xa9 Luis Sierra'
p3697
S'Domain'
p3698
tp3699
I1
s(S'F. Manfredi'
p3700
S'DBMS'
p3701
tp3702
I1
s(S'Nelson Mendon\xc3\xa7a Mattos'
p3703
S'Active'
p3704
tp3705
I1
s(S'F. Manfredi'
p3706
S'Data'
p3707
tp3708
I1
s(S'Manuel Caeiro'
p3709
S'Webbased'
p3710
tp3711
I1
s(S'Ravi Mukkamala'
p3712
S'Using'
p3713
tp3714
I1
s(S'Matteo Pampolini'
p3715
S'Home'
p3716
tp3717
I1
s(S'Erik Sandewall'
p3718
S'Change'
p3719
tp3720
I1
s(S'Shmuel Sagiv'
p3721
S'Analysis'
p3722
tp3723
I1
s(S'Valeria Mihalache'
p3724
S'D0L'
p3725
tp3726
I1
s(S'Juli\xc3\xa1n Guti\xc3\xa9rrez Serrano'
p3727
S'adaptive'
p3728
tp3729
I1
s(S'Jakub Zavrel'
p3730
S'MemoryBased'
p3731
tp3732
I1
s(S'A. Mecchia'
p3733
S'Base'
p3734
tp3735
I1
s(S'Ravi S. Sandhu'
p3736
S'Access'
p3737
tp3738
I1
s(S'S. Torres'
p3739
S'System'
p3740
tp3741
I1
s(S'Paloma Martinez'
p3742
S'Schemata'
p3743
tp3744
I1
s(S'Domenico Sacc\xc3\xa0'
p3745
S'Physical'
p3746
tp3747
I1
s(S'Hendrik Pieter Barendregt'
p3748
S'Functional'
p3749
tp3750
I1
s(S'Bernd Mahr'
p3751
S'Expectations'
p3752
tp3753
I1
s(S'Steven Blundy'
p3754
S'Sequence'
p3755
tp3756
I1
s(S'Kenji Mase'
p3757
S'Conversations'
p3758
tp3759
I1
s(S'David Maier'
p3760
S'Fast'
p3761
tp3762
I1
s(S'Ravi Mukkamala'
p3763
S'SemanticsBased'
p3764
tp3765
I1
s(S'Ulrich Schiel'
p3766
S'Extensible'
p3767
tp3768
I1
s(S'Manuel Caeiro'
p3769
S'Creating'
p3770
tp3771
I1
s(S'Dwight Deugo'
p3772
S'Patterns'
p3773
tp3774
I1
s(S'Norman W. Paton'
p3775
S'Optimization'
p3776
tp3777
I1
s(S'Fabio Ciravegna'
p3778
S'Document'
p3779
tp3780
I1
s(S'F. J. Blanco'
p3781
S'Using'
p3782
tp3783
I1
s(S'Alexiei Dingli'
p3784
S'Information'
p3785
tp3786
I1
s(S'Tom\xc3\xa1s A. P\xc3\xa9rez'
p3787
S'Strategies'
p3788
tp3789
I1
s(S'Shaul Dar'
p3790
S'Generalized'
p3791
tp3792
I1
s(S'Manuel Caeiro'
p3793
S'Collaborative'
p3794
tp3795
I1
s(S'Erik Sandewall'
p3796
S'Reasoning'
p3797
tp3798
I1
s(S'Vincenzo Marziale'
p3799
S'Flexible'
p3800
tp3801
I1
s(S'Dietmar Seipel'
p3802
S'Decomposition'
p3803
tp3804
I1
s(S'Ehud Y. Shapiro'
p3805
S'Logic'
p3806
tp3807
I1
s(S'Carlo Zaniolo'
p3808
S'Data'
p3809
tp3810
I1
s(S'Patrick Borras'
p3811
S'User'
p3812
tp3813
I1
s(S'John C. Mitchell'
p3814
S'Programming'
p3815
tp3816
I1
s(S'Jos\xc3\xa9 \xc3\x81ngel Vadillo Zorita'
p3817
S'hyperspace'
p3818
tp3819
I1
s(S'Carol Soderlund'
p3820
S'FPC'
p3821
tp3822
I1
s(S'Stefano Antoniazzi'
p3823
S'Online'
p3824
tp3825
I1
s(S'Jos\xc3\xa9 Bravo'
p3826
S'Environments'
p3827
tp3828
I1
s(S'Bernd Mahr'
p3829
S'Review'
p3830
tp3831
I1
s(S'Jean-Eric Pin'
p3832
S'Words'
p3833
tp3834
I1
s(S'Subramanian Rajagopalan'
p3835
S'Processors'
p3836
tp3837
I1
s(S'Ravindra B. Keskar'
p3838
S'Code'
p3839
tp3840
I1
s(S'Michael J. Maher'
p3841
S'Equivalences'
p3842
tp3843
I1
s(S'R. Conejo'
p3844
S'rhythm'
p3845
tp3846
I1
s(S'Jean-Louis Lassez'
p3847
S'Scheme'
p3848
tp3849
I1
s(S'Ravi Mukkamala'
p3850
S'Control'
p3851
tp3852
I1
s(S'Michael Weiss'
p3853
S'Patterns'
p3854
tp3855
I1
s(S'Sharad Malik'
p3856
S'Very'
p3857
tp3858
I1
s(S'P. Bertaina'
p3859
S'Logical'
p3860
tp3861
I1
s(S'Dwight Deugo'
p3862
S'Agent'
p3863
tp3864
I1
s(S'Paris C. Kanellakis'
p3865
S'Identity'
p3866
tp3867
I1
s(S'Craig Stanfill'
p3868
S'Algorithms'
p3869
tp3870
I1
s(S'Fernando V\xc3\xa9lez'
p3871
S'WorkstationServer'
p3872
tp3873
I1
s(S'Cyril U. Orji'
p3874
S'Reality'
p3875
tp3876
I1
s(S'Tom\xc3\xa1s A. P\xc3\xa9rez'
p3877
S'systems'
p3878
tp3879
I1
s(S'Herman Geuvers'
p3880
S'ProofAssistants'
p3881
tp3882
I1
s(S'Paolo Conforto'
p3883
S'Working'
p3884
tp3885
I1
s(S'Ravi Murthy'
p3886
S'Extensibility'
p3887
tp3888
I1
s(S'Silvia Clerici'
p3889
S'Systematic'
p3890
tp3891
I1
s(S'Peter McBurney'
p3892
S'Chance'
p3893
tp3894
I1
s(S'Joxan Jaffar'
p3895
S'Language'
p3896
tp3897
I1
s(S'Luis E. Anido-Rif\xc3\xb3n'
p3898
S'Webbased'
p3899
tp3900
I1
s(S'Kenji Mase'
p3901
S'Enhancing'
p3902
tp3903
I1
s(S'Michael J. Maher'
p3904
S'Programs'
p3905
tp3906
I1
s(S'Ricardo L\xc3\xb3pez Pietro'
p3907
S'hypermedia'
p3908
tp3909
I1
s(S'Ricardo L\xc3\xb3pez Pietro'
p3910
S'user'
p3911
tp3912
I1
s(S'Silvia Clerici'
p3913
S'Approach'
p3914
tp3915
I1
s(S'Juan de Lara'
p3916
S'Multimedia'
p3917
tp3918
I1
s(S'Clark Elliott'
p3919
S'Pedagogical'
p3920
tp3921
I1
s(S'Ricardo L\xc3\xb3pez Pietro'
p3922
S'Hypermedia'
p3923
tp3924
I1
s(S'Keng Siau'
p3925
S'Analysis'
p3926
tp3927
I1
s(S'Sharad Malik'
p3928
S'Instuction'
p3929
tp3930
I1
s(S'Sushil Jajodia'
p3931
S'Security'
p3932
tp3933
I1
s(S'Mechthild Rohen'
p3934
S'Systems'
p3935
tp3936
I1
s(S'Helen Pull'
p3937
S'Logic'
p3938
tp3939
I1
s(S'Carlos Nieto'
p3940
S'Cardinality'
p3941
tp3942
I1
s(S'Rolf Hennicker'
p3943
S'Design'
p3944
tp3945
I1
s(S'Antonio Albano'
p3946
S'Database'
p3947
tp3948
I1
s(S'Ricardo L\xc3\xb3pez Pietro'
p3949
S'aid'
p3950
tp3951
I1
s(S'M. Lacruz'
p3952
S'Learning'
p3953
tp3954
I1
s(S'Fabio Ciravegna'
p3955
S'Effective'
p3956
tp3957
I1
s(S'Subramanian Rajagopalan'
p3958
S'Framework'
p3959
tp3960
I1
s(S'Matteo Pampolini'
p3961
S'Towards'
p3962
tp3963
I1
s(S'Rajiv Gupta'
p3964
S'Testing'
p3965
tp3966
I1
s(S'Michael J. Franklin'
p3967
S'Management'
p3968
tp3969
I1
s(S'Jane S. Richardson'
p3970
S'Structures'
p3971
tp3972
I1
s(S'Jacob Stein'
p3973
S'Development'
p3974
tp3975
I1
s(S'Alexander Tuzhilin'
p3976
S'Simulations'
p3977
tp3978
I1
s(S'Michael J. Jipping'
p3979
S'Paradigm'
p3980
tp3981
I1
s(S'M. N. Moreno'
p3982
S'Using'
p3983
tp3984
I1
s(S'Juli\xc3\xa1n Guti\xc3\xa9rrez Serrano'
p3985
S'element'
p3986
tp3987
I1
s(S'Bernd Mahr'
p3988
S'Practice'
p3989
tp3990
I1
s(S'Krishna G. Kulkarni'
p3991
S'Features'
p3992
tp3993
I1
s(S'Dolores Cuandra'
p3994
S'Relational'
p3995
tp3996
I1
s(S'Jos\xc3\xa9 Luis Sierra'
p3997
S'Design'
p3998
tp3999
I1
s(S'Yorick Wilks'
p4000
S'Document'
p4001
tp4002
I1
s(S'Simon Parsons'
p4003
S'Logics'
p4004
tp4005
I1
s(S'Alexandru Mateescu'
p4006
S'Conjecture'
p4007
tp4008
I1
s(S'S. Bing Yao'
p4009
S'Interactive'
p4010
tp4011
I1
s(S'Didier L\xc3\xa9v\xc3\xaaque'
p4012
S'Building'
p4013
tp4014
I1
s(S'Jos\xc3\xa9 Luis Sierra'
p4015
S'Analysis'
p4016
tp4017
I1
s(S'Ver\xc3\xb3nica Dahl'
p4018
S'Infrastructure'
p4019
tp4020
I1
s(S'A. Mecchia'
p4021
S'Physical'
p4022
tp4023
I1
s(S'Alexander Tuzhilin'
p4024
S'temporal'
p4025
tp4026
I1
s(S'Shmuel Sagiv'
p4027
S'Applications'
p4028
tp4029
I1
s(S'Tom\xc3\xa1s A. P\xc3\xa9rez'
p4030
S'hyperspace'
p4031
tp4032
I1
s(S'William L. Bynum'
p4033
S'Run'
p4034
tp4035
I1
s(S'Mart\xc3\xadn Llamas Nistal'
p4036
S'Training'
p4037
tp4038
I1
s(S'Daniela Petrelli'
p4039
S'Extraction'
p4040
tp4041
I1
s(S'Paris C. Kanellakis'
p4042
S'Object'
p4043
tp4044
I1
s(S'Sanjay Manchanda'
p4045
S'Logicbased'
p4046
tp4047
I1
s(S'Patrick Borras'
p4048
S'Interfaces'
p4049
tp4050
I1
s(S'Mart\xc3\xadn Llamas Nistal'
p4051
S'Environments'
p4052
tp4053
I1
s(S'Robert E. Noonan'
p4054
S'Time'
p4055
tp4056
I1
s(S'Tom\xc3\xa1s A. P\xc3\xa9rez'
p4057
S'purposes'
p4058
tp4059
I1
s(S'KayLiang Ong'
p4060
S'Mining'
p4061
tp4062
I1
s(S'Matteo Pampolini'
p4063
S'Office'
p4064
tp4065
I1
s(S'Marco Cremonini'
p4066
S'Coordination'
p4067
tp4068
I1
s(S'Alfredo Fern\xc3\xa1ndez-Valmayor'
p4069
S'Design'
p4070
tp4071
I1
s(S'John Darlington'
p4072
S'Functional'
p4073
tp4074
I1
s(S'Shmuel Sagiv'
p4075
S'Shape'
p4076
tp4077
I1
s(S'Sandeepan Banerjee'
p4078
S'All'
p4079
tp4080
I1
s(S'Eyal Yardeni'
p4081
S'Typed'
p4082
tp4083
I1
s(S'Jos\xc3\xa9 \xc3\x81ngel Vadillo Zorita'
p4084
S'An'
p4085
tp4086
I1
s(S'Kenji Mase'
p4087
S'Daily'
p4088
tp4089
I1
s(S'Paloma Martinez'
p4090
S'Constraints'
p4091
tp4092
I1
s(S'Marco Cremonini'
p4093
S'Security'
p4094
tp4095
I1
s(S'Stefano Antoniazzi'
p4096
S'Towards'
p4097
tp4098
I1
s(S'J. V. Benlloch'
p4099
S'Courseware'
p4100
tp4101
I1
s(S'Sandeepan Banerjee'
p4102
S'Extensibility'
p4103
tp4104
I1
s(S'David J. DeWitt'
p4105
S'Three'
p4106
tp4107
I1
s(S'Serge Abiteboul'
p4108
S'Object'
p4109
tp4110
I1
s(S'Thomas Lemke'
p4111
S'Logic'
p4112
tp4113
I1
s(S'Manuel Alfonseca'
p4114
S'Automatically'
p4115
tp4116
I1
s(S'A. Gonz\xc3\xa1lez'
p4117
S'user'
p4118
tp4119
I1
s(S'Giacinto Losquadro'
p4120
S'Solutions'
p4121
tp4122
I1
s(S'Paul Tarau'
p4123
S'Internet'
p4124
tp4125
I1
s(S'Gerhard Widmer'
p4126
S'On'
p4127
tp4128
I1
s(S'Mart\xc3\xadn Llamas Nistal'
p4129
S'Creating'
p4130
tp4131
I1
s(S'Elena Castro'
p4132
S'Constraints'
p4133
tp4134
I1
s(S'Crescencio Bravo'
p4135
S'Drawing'
p4136
tp4137
I1
s(S'Antonio Navarro'
p4138
S'Hypermedia'
p4139
tp4140
I1
s(S'F. Manfredi'
p4141
S'Physical'
p4142
tp4143
I1
s(S'Christopher M. Bishop'
p4144
S'Neural'
p4145
tp4146
I1
s(S'David C. Richardson'
p4147
S'Mining'
p4148
tp4149
I1
s(S'Manuel Ortega'
p4150
S'Synchronous'
p4151
tp4152
I1
s(S'Jos\xc3\xa9 Luis Fern\xc3\xa1ndez Alem\xc3\xa1n'
p4153
S'UML'
p4154
tp4155
I1
s(S'S. Torres'
p4156
S'Collares'
p4157
tp4158
I1
s(S'Hartmut Ehrig'
p4159
S'Expectations'
p4160
tp4161
I1
s(S'Jos\xc3\xa9 Ambrosio Toval \xc3\x81lvarez'
p4162
S'Seamless'
p4163
tp4164
I1
s(S'Henk Barendregt'
p4165
S'ProofAssistants'
p4166
tp4167
I1
s(S'Walter Dealemans'
p4168
S'NLP'
p4169
tp4170
I1
s(S'Fred B. Schneider'
p4171
S'Programming'
p4172
tp4173
I1
s(S'Reinhard Wilhelm'
p4174
S'Analysis'
p4175
tp4176
I1
s(S'Juli\xc3\xa1n Guti\xc3\xa9rrez Serrano'
p4177
S'Guiding'
p4178
tp4179
I1
s(S'Roger B. Dannenberg'
p4180
S'Interactive'
p4181
tp4182
I1
s(S'Miguel A. Redondo'
p4183
S'Learning'
p4184
tp4185
I1
s(S'Antonio Navarro'
p4186
S'Applications'
p4187
tp4188
I1
s(S'Clement T. Yu'
p4189
S'Processing'
p4190
tp4191
I1
s(S'Yasuyuki Sumi'
p4192
S'Conversations'
p4193
tp4194
I1
s(S'Armin B. Cremers'
p4195
S'Program'
p4196
tp4197
I1
s(S'Roberto Zicari'
p4198
S'Framework'
p4199
tp4200
I1
s(S'Jacob Stein'
p4201
S'Implementation'
p4202
tp4203
I1
s(S'John Darlington'
p4204
S'Logic'
p4205
tp4206
I1
s(S'Michael J. Maher'
p4207
S'Language'
p4208
tp4209
I1
s(S'Divesh Srivastava'
p4210
S'System'
p4211
tp4212
I1
s(S'Richard M. Karp'
p4213
S'The'
p4214
tp4215
I1
s(S'Armin B. Cremers'
p4216
S'Logic'
p4217
tp4218
I1
s(S'Michael I. Jordan'
p4219
S'Neural'
p4220
tp4221
I1
s(S'Domenico Sacc\xc3\xa0'
p4222
S'Base'
p4223
tp4224
I1
s(S'Francisco Jos\xc3\xa9 Garc\xc3\xada'
p4225
S'ADAM'
p4226
tp4227
I1
s(S'Michael Weiss'
p4228
S'Reusable'
p4229
tp4230
I1
s(S'Jim Diederich'
p4231
S'Database'
p4232
tp4233
I1
s(S'Silvia Clerici'
p4234
S'Static'
p4235
tp4236
I1
s(S'Dietmar Seipel'
p4237
S'Systems'
p4238
tp4239
I1
s(S'Roberta Cochrane'
p4240
S'Active'
p4241
tp4242
I1
s(S'Jan M. Zytkow'
p4243
S'Regularities'
p4244
tp4245
I1
s(S'Steven A. Demurjian'
p4246
S'Design'
p4247
tp4248
I1
s(S'Jan L. G. Dietz'
p4249
S'Comprehensive'
p4250
tp4251
I1
s(S'Y. Kim'
p4252
S'Optimization'
p4253
tp4254
I1
s(S'Walter Dealemans'
p4255
S'Classification'
p4256
tp4257
I1
s(S'Alfredo Fern\xc3\xa1ndez-Valmayor'
p4258
S'Domain'
p4259
tp4260
I1
s(S'Terry A. Halpin'
p4261
S'ORM'
p4262
tp4263
I1
s(S'F. J. Blanco'
p4264
S'upper'
p4265
tp4266
I1
s(S'Mario Piattini'
p4267
S'Data'
p4268
tp4269
I1
s(S'John Darlington'
p4270
S'Unification'
p4271
tp4272
I1
s(S'Luis E. Anido-Rial'
p4273
S'Modules'
p4274
tp4275
I1
s(S'Henk Barendregt'
p4276
S'Programming'
p4277
tp4278
I1
s(S'Joann J. Ordille'
p4279
S'Large'
p4280
tp4281
I1
s(S'Jean-Claude Mamou'
p4282
S'User'
p4283
tp4284
I1
s(S'Y. Kim'
p4285
S'Transaction'
p4286
tp4287
I1
s(S'Yorick Wilks'
p4288
S'HumanCentred'
p4289
tp4290
I1
s(S'B. Curto'
p4291
S'tools'
p4292
tp4293
I1
s(S'Juan de Lara'
p4294
S'Integration'
p4295
tp4296
I1
s(S'Philippe Smets'
p4297
S'Model'
p4298
tp4299
I1
s(S'John C. Mitchell'
p4300
S'Systems'
p4301
tp4302
I1
s(S'Stefano Paraboschi'
p4303
S'Rule'
p4304
tp4305
I1
s(S'Arto Salomaa'
p4306
S'Road'
p4307
tp4308
I1
s(S'Domenico Sacc\xc3\xa0'
p4309
S'Codasyl'
p4310
tp4311
I1
s(S'Paris C. Kanellakis'
p4312
S'Introduction'
p4313
tp4314
I1
s(S'David C. Richardson'
p4315
S'3D'
p4316
tp4317
I1
s(S'Ricardo L\xc3\xb3pez Pietro'
p4318
S'Pedagogical'
p4319
tp4320
I1
s(S'Valeria Mihalache'
p4321
S'Systems'
p4322
tp4323
I1
s(S'Daniela Petrelli'
p4324
S'HumanCentred'
p4325
tp4326
I1
s(S'Pierangela Samarati'
p4327
S'Intrusion'
p4328
tp4329
I1
s(S'Feliks Kluzniak'
p4330
S'Marseille'
p4331
tp4332
I1
s(S'Paloma Martinez'
p4333
S'Relationship'
p4334
tp4335
I1
s(S'Hendrik Pieter Barendregt'
p4336
S'Lambda'
p4337
tp4338
I1
s(S'Michael J. Franklin'
p4339
S'Database'
p4340
tp4341
I1
s(S'Paris C. Kanellakis'
p4342
S'Environment'
p4343
tp4344
I1
s(S'Paul Tarau'
p4345
S'Programming'
p4346
tp4347
I2
s(S'Richard T. Snodgrass'
p4348
S'An'
p4349
tp4350
I1
s(S'A. Gonz\xc3\xa1lez'
p4351
S'With'
p4352
tp4353
I1
s(S"Patrick E. O'Neil"
p4354
S'Measurement'
p4355
tp4356
I1
s(S'Walter Dealemans'
p4357
S'Information'
p4358
tp4359
I1
s(S'Dean Rosenzweig'
p4360
S'The'
p4361
tp4362
I1
s(S'Alan R. Hevner'
p4363
S'Methods'
p4364
tp4365
I1
s(S'Sophie Cluet'
p4366
S'Query'
p4367
tp4368
I1
s(S'Hock Chuan Chan'
p4369
S'Language'
p4370
tp4371
I1
s(S'Didier Tallot'
p4372
S'User'
p4373
tp4374
I1
s(S'Armin B. Cremers'
p4375
S'Interoperable'
p4376
tp4377
I1
s(S'KayLiang Ong'
p4378
S'Metaqueries'
p4379
tp4380
I1
s(S'Manuel Ortega'
p4381
S'Learning'
p4382
tp4383
I1
s(S'Alexander Bockmayr'
p4384
S'Numerical'
p4385
tp4386
I1
s(S'Helen Pull'
p4387
S'Languages'
p4388
tp4389
I1
s(S'Fred Engler'
p4390
S'Rice'
p4391
tp4392
I1
s(S'Kshitij Shah'
p4393
S'Patch'
p4394
tp4395
I1
s(S'Vishu Krishnamurthy'
p4396
S'Architecture'
p4397
tp4398
I1
s(S'A. M. Moreno'
p4399
S'Software'
p4400
tp4401
I1
s(S'David Harel'
p4402
S'Towards'
p4403
tp4404
I1
s(S'David Maier'
p4405
S'Development'
p4406
tp4407
I1
s(S'Arto Salomaa'
p4408
S'Lindenmayer'
p4409
tp4410
I1
s(S'Jean-Louis Lassez'
p4411
S'Programming'
p4412
tp4413
I1
s(S'Patrick Borras'
p4414
S'Looks'
p4415
tp4416
I1
s(S'Y. Kim'
p4417
S'Techniques'
p4418
tp4419
I1
s(S'James Hatfield'
p4420
S'Rice'
p4421
tp4422
I1
s(S'Terry A. Halpin'
p4423
S'Analysis'
p4424
tp4425
I1
s(S'Feliks Kluzniak'
p4426
S'Personal'
p4427
tp4428
I1
s(S'John Lim'
p4429
S'Review'
p4430
tp4431
I1
s(S'Cyril U. Orji'
p4432
S'Multimedia'
p4433
tp4434
I1
s(S'Miguel A. Redondo'
p4435
S'Drawing'
p4436
tp4437
I1
s(S'David Scott Warren'
p4438
S'Updates'
p4439
tp4440
I1
s(S'Peter McBurney'
p4441
S'Logics'
p4442
tp4443
I1
s(S'Mart\xc3\xadn Llamas Nistal'
p4444
S'Collaborative'
p4445
tp4446
I1
s(S'Alexiei Dingli'
p4447
S'Adaptive'
p4448
tp4449
I1
s(S'R. Conejo'
p4450
S'suprasegmental'
p4451
tp4452
I1
s(S'Rodney M. Goodman'
p4453
S'Theory'
p4454
tp4455
I1
s(S'Liliana Favre'
p4456
S'Transform'
p4457
tp4458
I1
s(S'Dennis McLeod'
p4459
S'Data'
p4460
tp4461
I1
s(S'Roger B. Dannenberg'
p4462
S'Music'
p4463
tp4464
I1
s(S'Nelson Mendon\xc3\xa7a Mattos'
p4465
S'SQL3'
p4466
tp4467
I1
s(S'Juli\xc3\xa1n Guti\xc3\xa9rrez Serrano'
p4468
S'hypermedia'
p4469
tp4470
I1
s(S'J\xc3\xbcrgen Sauer'
p4471
S'MetaScheduling'
p4472
tp4473
I1
s(S'Claude Delobel'
p4474
S'Introduction'
p4475
tp4476
I1
s(S'Didier Tallot'
p4477
S'Interfaces'
p4478
tp4479
I1
s(S'Sushil Jajodia'
p4480
S'Using'
p4481
tp4482
I1
s(S'Jos\xc3\xa9 Luis Fern\xc3\xa1ndez Alem\xc3\xa1n'
p4483
S'Seamless'
p4484
tp4485
I1
s(S'Alfredo Fern\xc3\xa1ndez-Valmayor'
p4486
S'Development'
p4487
tp4488
I1
s(S'Elena Castro'
p4489
S'Preserving'
p4490
tp4491
I1
s(S'Walter Dealemans'
p4492
S'Extraction'
p4493
tp4494
I1
s(S'A. Gonz\xc3\xa1lez'
p4495
S'knowledge'
p4496
tp4497
I1
s(S'Peter Wegner'
p4498
S'Classification'
p4499
tp4500
I1
s(S'Coral Calero'
p4501
S'Warehouse'
p4502
tp4503
I1
s(S'F\xc3\xa9lix Buend\xc3\xada'
p4504
S'via'
p4505
tp4506
I1
s(S'Valeria De Antonellis'
p4507
S'Design'
p4508
tp4509
I1
s(S'Martin Nussbaumer'
p4510
S'WebAnwendungen'
p4511
tp4512
I1
s(S'Herman Geuvers'
p4513
S'Systems'
p4514
tp4515
I1
s(S'Gail E. Kaiser'
p4516
S'Cooperative'
p4517
tp4518
I1
s.